libmodsecurity.so.3:CPTAddElement
libmodsecurity.so.3:CPTAppendToCPTDataList
libmodsecurity.so.3:CPTCreateCPTData
libmodsecurity.so.3:CPTCreateHead
libmodsecurity.so.3:CPTCreateNode
libmodsecurity.so.3:CPTCreatePrefix
libmodsecurity.so.3:CPTCreateRadixTree
libmodsecurity.so.3:CPTFindElement
libmodsecurity.so.3:CPTFindElementIPNetblock
libmodsecurity.so.3:CPTIpMatch
libmodsecurity.so.3:CPTRetriveNode
libmodsecurity.so.3:CPTRetriveParentNode
libmodsecurity.so.3:CheckBitmask
libmodsecurity.so.3:ConvertIPNetmask
libmodsecurity.so.3:InsertDataPrefix
libmodsecurity.so.3:InsertNetmask
libmodsecurity.so.3:SetParentNode
libmodsecurity.so.3:TreeAddIP
libmodsecurity.so.3:TreeCheckData
libmodsecurity.so.3:TreePrefixContainNetmask
libmodsecurity.so.3:TreePrefixNetmask
libmodsecurity.so.3:_Z10yyget_lengv
libmodsecurity.so.3:_Z10yyget_textv
libmodsecurity.so.3:_Z11yyget_debugv
libmodsecurity.so.3:_Z11yyset_debugi
libmodsecurity.so.3:_Z12yyget_linenov
libmodsecurity.so.3:_Z12yyset_linenoi
libmodsecurity.so.3:_Z13yy_scan_bytesPKci
libmodsecurity.so.3:_Z13yylex_destroyv
libmodsecurity.so.3:_Z14yy_scan_bufferPcm
libmodsecurity.so.3:_Z14yy_scan_stringPKc
libmodsecurity.so.3:_Z15yy_flush_bufferP15yy_buffer_state
libmodsecurity.so.3:_Z16yy_create_bufferP8_IO_FILEi
libmodsecurity.so.3:_Z16yy_delete_bufferP15yy_buffer_state
libmodsecurity.so.3:_Z18yypop_buffer_statev
libmodsecurity.so.3:_Z19yy_switch_to_bufferP15yy_buffer_state
libmodsecurity.so.3:_Z19yypush_buffer_stateP15yy_buffer_state
libmodsecurity.so.3:_Z5yylexRN11modsecurity6Parser6DriverE
libmodsecurity.so.3:_Z6yyfreePv
libmodsecurity.so.3:_Z7yyallocm
libmodsecurity.so.3:_Z8yyget_inv
libmodsecurity.so.3:_Z8yyset_inP8_IO_FILE
libmodsecurity.so.3:_Z9yyget_outv
libmodsecurity.so.3:_Z9yyreallocPvm
libmodsecurity.so.3:_Z9yyrestartP8_IO_FILE
libmodsecurity.so.3:_Z9yyset_outP8_IO_FILE
libmodsecurity.so.3:_ZN11modsecurity10RuleScript4initEPNSt7__cxx1112basic_stringIcSt11char_traitsIcESaIcEEE
libmodsecurity.so.3:_ZN11modsecurity10RuleScript8evaluateEPNS_11TransactionESt10shared_ptrINS_11RuleMessageEE
libmodsecurity.so.3:_ZN11modsecurity10collection11CollectionsC1EPNS0_10CollectionES3_S3_S3_S3_
libmodsecurity.so.3:_ZN11modsecurity10collection11CollectionsC2EPNS0_10CollectionES3_S3_S3_S3_
libmodsecurity.so.3:_ZN11modsecurity10collection11CollectionsD1Ev
libmodsecurity.so.3:_ZN11modsecurity10collection11CollectionsD2Ev
libmodsecurity.so.3:_ZN11modsecurity10collection7backend14CollectionData17setFromSerializedEPKcm
libmodsecurity.so.3:_ZN11modsecurity10collection7backend14CollectionData9setExpiryEi
libmodsecurity.so.3:_ZN11modsecurity10collection7backend18InMemoryPerProcess11updateFirstERKNSt7__cxx1112basic_stringIcSt11char_traitsIcESaIcEEESA_
libmodsecurity.so.3:_ZN11modsecurity10collection7backend18InMemoryPerProcess12delIfExpiredERKNSt7__cxx1112basic_stringIcSt11char_traitsIcESaIcEEE
libmodsecurity.so.3:_ZN11modsecurity10collection7backend18InMemoryPerProcess12resolveFirstERKNSt7__cxx1112basic_stringIcSt11char_traitsIcESaIcEEE
libmodsecurity.so.3:_ZN11modsecurity10collection7backend18InMemoryPerProcess18resolveSingleMatchERKNSt7__cxx1112basic_stringIcSt11char_traitsIcESaIcEEEPSt6vectorIPKNS_13VariableValueESaISE_EE
libmodsecurity.so.3:_ZN11modsecurity10collection7backend18InMemoryPerProcess18storeOrUpdateFirstERKNSt7__cxx1112basic_stringIcSt11char_traitsIcESaIcEEESA_
libmodsecurity.so.3:_ZN11modsecurity10collection7backend18InMemoryPerProcess19resolveMultiMatchesERKNSt7__cxx1112basic_stringIcSt11char_traitsIcESaIcEEEPSt6vectorIPKNS_13VariableValueESaISE_EERNS_9variables13KeyExclusionsE
libmodsecurity.so.3:_ZN11modsecurity10collection7backend18InMemoryPerProcess24resolveRegularExpressionERKNSt7__cxx1112basic_stringIcSt11char_traitsIcESaIcEEEPSt6vectorIPKNS_13VariableValueESaISE_EERNS_9variables13KeyExclusionsE
libmodsecurity.so.3:_ZN11modsecurity10collection7backend18InMemoryPerProcess3delERKNSt7__cxx1112basic_stringIcSt11char_traitsIcESaIcEEE
libmodsecurity.so.3:_ZN11modsecurity10collection7backend18InMemoryPerProcess5storeENSt7__cxx1112basic_stringIcSt11char_traitsIcESaIcEEES8_
libmodsecurity.so.3:_ZN11modsecurity10collection7backend18InMemoryPerProcess9setExpiryERKNSt7__cxx1112basic_stringIcSt11char_traitsIcESaIcEEEi
libmodsecurity.so.3:_ZN11modsecurity10collection7backend18InMemoryPerProcessC1ERKNSt7__cxx1112basic_stringIcSt11char_traitsIcESaIcEEE
libmodsecurity.so.3:_ZN11modsecurity10collection7backend18InMemoryPerProcessC2ERKNSt7__cxx1112basic_stringIcSt11char_traitsIcESaIcEEE
libmodsecurity.so.3:_ZN11modsecurity10collection7backend18InMemoryPerProcessD0Ev
libmodsecurity.so.3:_ZN11modsecurity10collection7backend18InMemoryPerProcessD1Ev
libmodsecurity.so.3:_ZN11modsecurity10collection7backend18InMemoryPerProcessD2Ev
libmodsecurity.so.3:_ZN11modsecurity11ModSecurity14setServerLogCbEPFvPvPKvE
libmodsecurity.so.3:_ZN11modsecurity11ModSecurity14setServerLogCbEPFvPvPKvEi
libmodsecurity.so.3:_ZN11modsecurity11ModSecurity20processContentOffsetEPKcmS2_PNSt7__cxx1112basic_stringIcSt11char_traitsIcESaIcEEEPS2_
libmodsecurity.so.3:_ZN11modsecurity11ModSecurity23setConnectorInformationERKNSt7__cxx1112basic_stringIcSt11char_traitsIcESaIcEEE
libmodsecurity.so.3:_ZN11modsecurity11ModSecurity6whoAmIB5cxx11Ev
libmodsecurity.so.3:_ZN11modsecurity11ModSecurity9serverLogEPvSt10shared_ptrINS_11RuleMessageEE
libmodsecurity.so.3:_ZN11modsecurity11ModSecurityC1Ev
libmodsecurity.so.3:_ZN11modsecurity11ModSecurityC2Ev
libmodsecurity.so.3:_ZN11modsecurity11ModSecurityD1Ev
libmodsecurity.so.3:_ZN11modsecurity11ModSecurityD2Ev
libmodsecurity.so.3:_ZN11modsecurity11RuleMessage13_errorLogTailB5cxx11EPKS0_
libmodsecurity.so.3:_ZN11modsecurity11RuleMessage3logB5cxx11EPKS0_ii
libmodsecurity.so.3:_ZN11modsecurity11RuleMessage8_detailsB5cxx11EPKS0_
libmodsecurity.so.3:_ZN11modsecurity11Transaction10processURIEPKcS2_S2_
libmodsecurity.so.3:_ZN11modsecurity11Transaction11addArgumentERKNSt7__cxx1112basic_stringIcSt11char_traitsIcESaIcEEES8_S8_m
libmodsecurity.so.3:_ZN11modsecurity11Transaction12interventionEPNS_25ModSecurityIntervention_tE
libmodsecurity.so.3:_ZN11modsecurity11Transaction14processLoggingEv
libmodsecurity.so.3:_ZN11modsecurity11Transaction16addRequestHeaderEPKhS2_
libmodsecurity.so.3:_ZN11modsecurity11Transaction16addRequestHeaderEPKhmS2_m
libmodsecurity.so.3:_ZN11modsecurity11Transaction16addRequestHeaderERKNSt7__cxx1112basic_stringIcSt11char_traitsIcESaIcEEES8_
libmodsecurity.so.3:_ZN11modsecurity11Transaction16extractArgumentsERKNSt7__cxx1112basic_stringIcSt11char_traitsIcESaIcEEES8_m
libmodsecurity.so.3:_ZN11modsecurity11Transaction16updateStatusCodeEi
libmodsecurity.so.3:_ZN11modsecurity11Transaction17addResponseHeaderEPKhS2_
libmodsecurity.so.3:_ZN11modsecurity11Transaction17addResponseHeaderEPKhmS2_m
libmodsecurity.so.3:_ZN11modsecurity11Transaction17addResponseHeaderERKNSt7__cxx1112basic_stringIcSt11char_traitsIcESaIcEEES8_
libmodsecurity.so.3:_ZN11modsecurity11Transaction17appendRequestBodyEPKhm
libmodsecurity.so.3:_ZN11modsecurity11Transaction17processConnectionEPKciS2_i
libmodsecurity.so.3:_ZN11modsecurity11Transaction18appendResponseBodyEPKhm
libmodsecurity.so.3:_ZN11modsecurity11Transaction18processRequestBodyEv
libmodsecurity.so.3:_ZN11modsecurity11Transaction19processResponseBodyEv
libmodsecurity.so.3:_ZN11modsecurity11Transaction19requestBodyFromFileEPKc
libmodsecurity.so.3:_ZN11modsecurity11Transaction19toOldAuditLogFormatEiRKNSt7__cxx1112basic_stringIcSt11char_traitsIcESaIcEEE
libmodsecurity.so.3:_ZN11modsecurity11Transaction20getRequestBodyLengthEv
libmodsecurity.so.3:_ZN11modsecurity11Transaction21getResponseBodyLengthEv
libmodsecurity.so.3:_ZN11modsecurity11Transaction21processRequestHeadersEv
libmodsecurity.so.3:_ZN11modsecurity11Transaction22processResponseHeadersEiRKNSt7__cxx1112basic_stringIcSt11char_traitsIcESaIcEEE
libmodsecurity.so.3:_ZN11modsecurity11Transaction24toOldAuditLogFormatIndexERKNSt7__cxx1112basic_stringIcSt11char_traitsIcESaIcEEEdS8_
libmodsecurity.so.3:_ZN11modsecurity11Transaction6toJSONB5cxx11Ei
libmodsecurity.so.3:_ZN11modsecurity11Transaction9serverLogESt10shared_ptrINS_11RuleMessageEE
libmodsecurity.so.3:_ZN11modsecurity11TransactionC1EPNS_11ModSecurityEPNS_8RulesSetEPcPv
libmodsecurity.so.3:_ZN11modsecurity11TransactionC1EPNS_11ModSecurityEPNS_8RulesSetEPv
libmodsecurity.so.3:_ZN11modsecurity11TransactionC2EPNS_11ModSecurityEPNS_8RulesSetEPcPv
libmodsecurity.so.3:_ZN11modsecurity11TransactionC2EPNS_11ModSecurityEPNS_8RulesSetEPv
libmodsecurity.so.3:_ZN11modsecurity11TransactionD1Ev
libmodsecurity.so.3:_ZN11modsecurity11TransactionD2Ev
libmodsecurity.so.3:_ZN11modsecurity13RunTimeString10appendTextERKNSt7__cxx1112basic_stringIcSt11char_traitsIcESaIcEEE
libmodsecurity.so.3:_ZN11modsecurity13RunTimeString8evaluateB5cxx11EPNS_11TransactionE
libmodsecurity.so.3:_ZN11modsecurity13RunTimeString8evaluateB5cxx11EPNS_11TransactionEPNS_4RuleE
libmodsecurity.so.3:_ZN11modsecurity13RunTimeString9appendVarESt10unique_ptrINS_9variables8VariableESt14default_deleteIS3_EE
libmodsecurity.so.3:_ZN11modsecurity14RulesSetPhases6appendEPS0_PNSt7__cxx1119basic_ostringstreamIcSt11char_traitsIcESaIcEEE
libmodsecurity.so.3:_ZN11modsecurity14RulesSetPhases6insertESt10shared_ptrINS_4RuleEE
libmodsecurity.so.3:_ZN11modsecurity15RuleWithActions11containsMsgERKNSt7__cxx1112basic_stringIcSt11char_traitsIcESaIcEEEPNS_11TransactionE
libmodsecurity.so.3:_ZN11modsecurity15RuleWithActions11containsTagERKNSt7__cxx1112basic_stringIcSt11char_traitsIcESaIcEEEPNS_11TransactionE
libmodsecurity.so.3:_ZN11modsecurity15RuleWithActions13executeActionEPNS_11TransactionEbSt10shared_ptrINS_11RuleMessageEEPNS_7actions6ActionEb
libmodsecurity.so.3:_ZN11modsecurity15RuleWithActions14performLoggingEPNS_11TransactionESt10shared_ptrINS_11RuleMessageEEbb
libmodsecurity.so.3:_ZN11modsecurity15RuleWithActions16getActionsByNameERKNSt7__cxx1112basic_stringIcSt11char_traitsIcESaIcEEEPNS_11TransactionE
libmodsecurity.so.3:_ZN11modsecurity15RuleWithActions22executeTransformationsEPNS_11TransactionERKNSt7__cxx1112basic_stringIcSt11char_traitsIcESaIcEEERNS3_4listISt4pairISt10shared_ptrIS8_ESE_ESaISF_EEE
libmodsecurity.so.3:_ZN11modsecurity15RuleWithActions28executeActionsAfterFullMatchEPNS_11TransactionEbSt10shared_ptrINS_11RuleMessageEE
libmodsecurity.so.3:_ZN11modsecurity15RuleWithActions3msgB5cxx11EPNS_11TransactionE
libmodsecurity.so.3:_ZN11modsecurity15RuleWithActions44executeActionsIndependentOfChainedRuleResultEPNS_11TransactionEPbSt10shared_ptrINS_11RuleMessageEE
libmodsecurity.so.3:_ZN11modsecurity15RuleWithActions7logDataB5cxx11EPNS_11TransactionE
libmodsecurity.so.3:_ZN11modsecurity15RuleWithActions8evaluateEPNS_11TransactionE
libmodsecurity.so.3:_ZN11modsecurity15RuleWithActions8evaluateEPNS_11TransactionESt10shared_ptrINS_11RuleMessageEE
libmodsecurity.so.3:_ZN11modsecurity15RuleWithActionsC1EPSt6vectorIPNS_7actions6ActionESaIS4_EEPS1_IPNS2_15transformations14TransformationESaISA_EESt10unique_ptrINSt7__cxx1112basic_stringIcSt11char_traitsIcESaIcEEESt14default_deleteISK_EEi
libmodsecurity.so.3:_ZN11modsecurity15RuleWithActionsC2EPSt6vectorIPNS_7actions6ActionESaIS4_EEPS1_IPNS2_15transformations14TransformationESaISA_EESt10unique_ptrINSt7__cxx1112basic_stringIcSt11char_traitsIcESaIcEEESt14default_deleteISK_EEi
libmodsecurity.so.3:_ZN11modsecurity15RuleWithActionsD0Ev
libmodsecurity.so.3:_ZN11modsecurity15RuleWithActionsD1Ev
libmodsecurity.so.3:_ZN11modsecurity15RuleWithActionsD2Ev
libmodsecurity.so.3:_ZN11modsecurity15RulesExceptions19loadRemoveRuleByMsgERKNSt7__cxx1112basic_stringIcSt11char_traitsIcESaIcEEEPS6_
libmodsecurity.so.3:_ZN11modsecurity15RulesExceptions19loadRemoveRuleByTagERKNSt7__cxx1112basic_stringIcSt11char_traitsIcESaIcEEEPS6_
libmodsecurity.so.3:_ZN11modsecurity15RulesExceptions20loadUpdateActionByIdEdSt10unique_ptrISt6vectorIS1_INS_7actions6ActionESt14default_deleteIS4_EESaIS7_EES5_IS9_EEPNSt7__cxx1112basic_stringIcSt11char_traitsIcESaIcEEE
libmodsecurity.so.3:_ZN11modsecurity15RulesExceptions20loadUpdateTargetByIdEdSt10unique_ptrISt6vectorIS1_INS_9variables8VariableESt14default_deleteIS4_EESaIS7_EES5_IS9_EEPNSt7__cxx1112basic_stringIcSt11char_traitsIcESaIcEEE
libmodsecurity.so.3:_ZN11modsecurity15RulesExceptions21loadUpdateTargetByMsgERKNSt7__cxx1112basic_stringIcSt11char_traitsIcESaIcEEESt10unique_ptrISt6vectorIS9_INS_9variables8VariableESt14default_deleteISC_EESaISF_EESD_ISH_EEPS6_
libmodsecurity.so.3:_ZN11modsecurity15RulesExceptions21loadUpdateTargetByTagERKNSt7__cxx1112basic_stringIcSt11char_traitsIcESaIcEEESt10unique_ptrISt6vectorIS9_INS_9variables8VariableESt14default_deleteISC_EESaISF_EESD_ISH_EEPS6_
libmodsecurity.so.3:_ZN11modsecurity15RulesExceptions4loadERKNSt7__cxx1112basic_stringIcSt11char_traitsIcESaIcEEEPS6_
libmodsecurity.so.3:_ZN11modsecurity15RulesExceptions5mergeEPS0_
libmodsecurity.so.3:_ZN11modsecurity15RulesExceptions8addRangeEii
libmodsecurity.so.3:_ZN11modsecurity15RulesExceptions8containsEi
libmodsecurity.so.3:_ZN11modsecurity15RulesExceptions9addNumberEi
libmodsecurity.so.3:_ZN11modsecurity15RulesExceptionsC1Ev
libmodsecurity.so.3:_ZN11modsecurity15RulesExceptionsC2Ev
libmodsecurity.so.3:_ZN11modsecurity15RulesExceptionsD1Ev
libmodsecurity.so.3:_ZN11modsecurity15RulesExceptionsD2Ev
libmodsecurity.so.3:_ZN11modsecurity16AnchoredVariable12resolveFirstB5cxx11Ev
libmodsecurity.so.3:_ZN11modsecurity16AnchoredVariable3setERKNSt7__cxx1112basic_stringIcSt11char_traitsIcESaIcEEEm
libmodsecurity.so.3:_ZN11modsecurity16AnchoredVariable3setERKNSt7__cxx1112basic_stringIcSt11char_traitsIcESaIcEEEmm
libmodsecurity.so.3:_ZN11modsecurity16AnchoredVariable5unsetEv
libmodsecurity.so.3:_ZN11modsecurity16AnchoredVariable6appendERKNSt7__cxx1112basic_stringIcSt11char_traitsIcESaIcEEEmb
libmodsecurity.so.3:_ZN11modsecurity16AnchoredVariable6appendERKNSt7__cxx1112basic_stringIcSt11char_traitsIcESaIcEEEmbi
libmodsecurity.so.3:_ZN11modsecurity16AnchoredVariable8evaluateB5cxx11Ev
libmodsecurity.so.3:_ZN11modsecurity16AnchoredVariable8evaluateEPSt6vectorIPKNS_13VariableValueESaIS4_EE
libmodsecurity.so.3:_ZN11modsecurity16AnchoredVariableC1EPNS_11TransactionERKNSt7__cxx1112basic_stringIcSt11char_traitsIcESaIcEEE
libmodsecurity.so.3:_ZN11modsecurity16AnchoredVariableC2EPNS_11TransactionERKNSt7__cxx1112basic_stringIcSt11char_traitsIcESaIcEEE
libmodsecurity.so.3:_ZN11modsecurity16AnchoredVariableD1Ev
libmodsecurity.so.3:_ZN11modsecurity16AnchoredVariableD2Ev
libmodsecurity.so.3:_ZN11modsecurity16ConfigUnicodeMap10loadConfigENSt7__cxx1112basic_stringIcSt11char_traitsIcESaIcEEEdPNS_18RulesSetPropertiesEPS6_
libmodsecurity.so.3:_ZN11modsecurity16RuleWithOperator16cleanMatchedVarsEPNS_11TransactionE
libmodsecurity.so.3:_ZN11modsecurity16RuleWithOperator17executeOperatorAtEPNS_11TransactionERKNSt7__cxx1112basic_stringIcSt11char_traitsIcESaIcEEESA_St10shared_ptrINS_11RuleMessageEE
libmodsecurity.so.3:_ZN11modsecurity16RuleWithOperator17updateMatchedVarsEPNS_11TransactionERKNSt7__cxx1112basic_stringIcSt11char_traitsIcESaIcEEESA_
libmodsecurity.so.3:_ZN11modsecurity16RuleWithOperator22getVariablesExceptionsEPNS_11TransactionEPNS_9variables9VariablesES5_
libmodsecurity.so.3:_ZN11modsecurity16RuleWithOperator8evaluateEPNS_11TransactionESt10shared_ptrINS_11RuleMessageEE
libmodsecurity.so.3:_ZN11modsecurity16RuleWithOperatorC1EPNS_9operators8OperatorEPNS_9variables9VariablesEPSt6vectorIPNS_7actions6ActionESaISA_EEPS7_IPNS8_15transformations14TransformationESaISG_EESt10unique_ptrINSt7__cxx1112basic_stringIcSt11char_traitsIcESaIcEEESt14default_deleteISQ_EEi
libmodsecurity.so.3:_ZN11modsecurity16RuleWithOperatorC2EPNS_9operators8OperatorEPNS_9variables9VariablesEPSt6vectorIPNS_7actions6ActionESaISA_EEPS7_IPNS8_15transformations14TransformationESaISG_EESt10unique_ptrINSt7__cxx1112basic_stringIcSt11char_traitsIcESaIcEEESt14default_deleteISQ_EEi
libmodsecurity.so.3:_ZN11modsecurity16RuleWithOperatorD0Ev
libmodsecurity.so.3:_ZN11modsecurity16RuleWithOperatorD1Ev
libmodsecurity.so.3:_ZN11modsecurity16RuleWithOperatorD2Ev
libmodsecurity.so.3:_ZN11modsecurity17RuleUnconditional8evaluateEPNS_11TransactionESt10shared_ptrINS_11RuleMessageEE
libmodsecurity.so.3:_ZN11modsecurity19AnchoredSetVariable12resolveFirstERKNSt7__cxx1112basic_stringIcSt11char_traitsIcESaIcEEE
libmodsecurity.so.3:_ZN11modsecurity19AnchoredSetVariable24resolveRegularExpressionEPNS_5Utils5RegexEPSt6vectorIPKNS_13VariableValueESaIS7_EE
libmodsecurity.so.3:_ZN11modsecurity19AnchoredSetVariable24resolveRegularExpressionEPNS_5Utils5RegexEPSt6vectorIPKNS_13VariableValueESaIS7_EERNS_9variables13KeyExclusionsE
libmodsecurity.so.3:_ZN11modsecurity19AnchoredSetVariable3setERKNSt7__cxx1112basic_stringIcSt11char_traitsIcESaIcEEES8_m
libmodsecurity.so.3:_ZN11modsecurity19AnchoredSetVariable3setERKNSt7__cxx1112basic_stringIcSt11char_traitsIcESaIcEEES8_mm
libmodsecurity.so.3:_ZN11modsecurity19AnchoredSetVariable5unsetEv
libmodsecurity.so.3:_ZN11modsecurity19AnchoredSetVariable7resolveEPSt6vectorIPKNS_13VariableValueESaIS4_EE
libmodsecurity.so.3:_ZN11modsecurity19AnchoredSetVariable7resolveEPSt6vectorIPKNS_13VariableValueESaIS4_EERNS_9variables13KeyExclusionsE
libmodsecurity.so.3:_ZN11modsecurity19AnchoredSetVariable7resolveERKNSt7__cxx1112basic_stringIcSt11char_traitsIcESaIcEEEPSt6vectorIPKNS_13VariableValueESaISC_EE
libmodsecurity.so.3:_ZN11modsecurity19AnchoredSetVariableC1EPNS_11TransactionERKNSt7__cxx1112basic_stringIcSt11char_traitsIcESaIcEEE
libmodsecurity.so.3:_ZN11modsecurity19AnchoredSetVariableC2EPNS_11TransactionERKNSt7__cxx1112basic_stringIcSt11char_traitsIcESaIcEEE
libmodsecurity.so.3:_ZN11modsecurity19AnchoredSetVariableD1Ev
libmodsecurity.so.3:_ZN11modsecurity19AnchoredSetVariableD2Ev
libmodsecurity.so.3:_ZN11modsecurity20RequestBodyProcessor20MultipartPartTmpFile4OpenEv
libmodsecurity.so.3:_ZN11modsecurity20RequestBodyProcessor20MultipartPartTmpFile5CloseEv
libmodsecurity.so.3:_ZN11modsecurity20RequestBodyProcessor20MultipartPartTmpFileD1Ev
libmodsecurity.so.3:_ZN11modsecurity20RequestBodyProcessor20MultipartPartTmpFileD2Ev
libmodsecurity.so.3:_ZN11modsecurity20RequestBodyProcessor9Multipart13is_token_charEh
libmodsecurity.so.3:_ZN11modsecurity20RequestBodyProcessor9Multipart15validate_quotesEPKcc
libmodsecurity.so.3:_ZN11modsecurity20RequestBodyProcessor9Multipart16process_boundaryEi
libmodsecurity.so.3:_ZN11modsecurity20RequestBodyProcessor9Multipart17process_part_dataEPNSt7__cxx1112basic_stringIcSt11char_traitsIcESaIcEEEm
libmodsecurity.so.3:_ZN11modsecurity20RequestBodyProcessor9Multipart18multipart_completeEPNSt7__cxx1112basic_stringIcSt11char_traitsIcESaIcEEE
libmodsecurity.so.3:_ZN11modsecurity20RequestBodyProcessor9Multipart19process_part_headerEPNSt7__cxx1112basic_stringIcSt11char_traitsIcESaIcEEEi
libmodsecurity.so.3:_ZN11modsecurity20RequestBodyProcessor9Multipart21count_boundary_paramsERKNSt7__cxx1112basic_stringIcSt11char_traitsIcESaIcEEE
libmodsecurity.so.3:_ZN11modsecurity20RequestBodyProcessor9Multipart25boundary_characters_validEPKc
libmodsecurity.so.3:_ZN11modsecurity20RequestBodyProcessor9Multipart25parse_content_dispositionEPKci
libmodsecurity.so.3:_ZN11modsecurity20RequestBodyProcessor9Multipart4initEPNSt7__cxx1112basic_stringIcSt11char_traitsIcESaIcEEE
libmodsecurity.so.3:_ZN11modsecurity20RequestBodyProcessor9Multipart7processERKNSt7__cxx1112basic_stringIcSt11char_traitsIcESaIcEEEPS7_i
libmodsecurity.so.3:_ZN11modsecurity20RequestBodyProcessor9MultipartC1ERKNSt7__cxx1112basic_stringIcSt11char_traitsIcESaIcEEEPNS_11TransactionE
libmodsecurity.so.3:_ZN11modsecurity20RequestBodyProcessor9MultipartC2ERKNSt7__cxx1112basic_stringIcSt11char_traitsIcESaIcEEEPNS_11TransactionE
libmodsecurity.so.3:_ZN11modsecurity20RequestBodyProcessor9MultipartD1Ev
libmodsecurity.so.3:_ZN11modsecurity20RequestBodyProcessor9MultipartD2Ev
libmodsecurity.so.3:_ZN11modsecurity5Utils11HttpsClient11handle_implEPcmm
libmodsecurity.so.3:_ZN11modsecurity5Utils11HttpsClient14setRequestBodyERKNSt7__cxx1112basic_stringIcSt11char_traitsIcESaIcEEE
libmodsecurity.so.3:_ZN11modsecurity5Utils11HttpsClient14setRequestTypeERKNSt7__cxx1112basic_stringIcSt11char_traitsIcESaIcEEE
libmodsecurity.so.3:_ZN11modsecurity5Utils11HttpsClient6handleEPcmmPv
libmodsecurity.so.3:_ZN11modsecurity5Utils11HttpsClient6setKeyERKNSt7__cxx1112basic_stringIcSt11char_traitsIcESaIcEEE
libmodsecurity.so.3:_ZN11modsecurity5Utils11HttpsClient8downloadERKNSt7__cxx1112basic_stringIcSt11char_traitsIcESaIcEEE
libmodsecurity.so.3:_ZN11modsecurity5Utils13crlfIsNewlineEv
libmodsecurity.so.3:_ZN11modsecurity5Utils3Md56digestERKNSt7__cxx1112basic_stringIcSt11char_traitsIcESaIcEEE
libmodsecurity.so.3:_ZN11modsecurity5Utils3Md59hexdigestERKNSt7__cxx1112basic_stringIcSt11char_traitsIcESaIcEEE
libmodsecurity.so.3:_ZN11modsecurity5Utils4Sha16digestERKNSt7__cxx1112basic_stringIcSt11char_traitsIcESaIcEEE
libmodsecurity.so.3:_ZN11modsecurity5Utils4Sha19hexdigestERKNSt7__cxx1112basic_stringIcSt11char_traitsIcESaIcEEE
libmodsecurity.so.3:_ZN11modsecurity5Utils5RegexC1ERKNSt7__cxx1112basic_stringIcSt11char_traitsIcESaIcEEEb
libmodsecurity.so.3:_ZN11modsecurity5Utils5RegexC2ERKNSt7__cxx1112basic_stringIcSt11char_traitsIcESaIcEEEb
libmodsecurity.so.3:_ZN11modsecurity5Utils5RegexD1Ev
libmodsecurity.so.3:_ZN11modsecurity5Utils5RegexD2Ev
libmodsecurity.so.3:_ZN11modsecurity5Utils6Base6415decode_forgivenERKNSt7__cxx1112basic_stringIcSt11char_traitsIcESaIcEEE
libmodsecurity.so.3:_ZN11modsecurity5Utils6Base6422decode_forgiven_engineEPhmPmPKhm
libmodsecurity.so.3:_ZN11modsecurity5Utils6Base646decodeERKNSt7__cxx1112basic_stringIcSt11char_traitsIcESaIcEEE
libmodsecurity.so.3:_ZN11modsecurity5Utils6Base646decodeERKNSt7__cxx1112basic_stringIcSt11char_traitsIcESaIcEEEb
libmodsecurity.so.3:_ZN11modsecurity5Utils6Base646encodeERKNSt7__cxx1112basic_stringIcSt11char_traitsIcESaIcEEE
libmodsecurity.so.3:_ZN11modsecurity5Utils6IpTree10addFromUrlERKNSt7__cxx1112basic_stringIcSt11char_traitsIcESaIcEEEPS7_
libmodsecurity.so.3:_ZN11modsecurity5Utils6IpTree11addFromFileERKNSt7__cxx1112basic_stringIcSt11char_traitsIcESaIcEEEPS7_
libmodsecurity.so.3:_ZN11modsecurity5Utils6IpTree13addFromBufferEPSiPNSt7__cxx1112basic_stringIcSt11char_traitsIcESaIcEEE
libmodsecurity.so.3:_ZN11modsecurity5Utils6IpTree13addFromBufferERKNSt7__cxx1112basic_stringIcSt11char_traitsIcESaIcEEEPS7_
libmodsecurity.so.3:_ZN11modsecurity5Utils6IpTree18postOrderTraversalEP8TreeNode
libmodsecurity.so.3:_ZN11modsecurity5Utils6IpTree8containsERKNSt7__cxx1112basic_stringIcSt11char_traitsIcESaIcEEE
libmodsecurity.so.3:_ZN11modsecurity5Utils6IpTreeC1Ev
libmodsecurity.so.3:_ZN11modsecurity5Utils6IpTreeC2Ev
libmodsecurity.so.3:_ZN11modsecurity5Utils6IpTreeD1Ev
libmodsecurity.so.3:_ZN11modsecurity5Utils6IpTreeD2Ev
libmodsecurity.so.3:_ZN11modsecurity5Utils9GeoLookup11setDataBaseERKNSt7__cxx1112basic_stringIcSt11char_traitsIcESaIcEEEPS7_
libmodsecurity.so.3:_ZN11modsecurity5Utils9GeoLookup7cleanUpEv
libmodsecurity.so.3:_ZN11modsecurity5Utils9GeoLookupD1Ev
libmodsecurity.so.3:_ZN11modsecurity5Utils9GeoLookupD2Ev
libmodsecurity.so.3:_ZN11modsecurity5utils10uri_decodeERKNSt7__cxx1112basic_stringIcSt11char_traitsIcESaIcEEE
libmodsecurity.so.3:_ZN11modsecurity5utils11SharedFiles12find_handlerERKNSt7__cxx1112basic_stringIcSt11char_traitsIcESaIcEEE
libmodsecurity.so.3:_ZN11modsecurity5utils11SharedFiles15add_new_handlerERKNSt7__cxx1112basic_stringIcSt11char_traitsIcESaIcEEEPS7_
libmodsecurity.so.3:_ZN11modsecurity5utils11SharedFiles4openERKNSt7__cxx1112basic_stringIcSt11char_traitsIcESaIcEEEPS7_
libmodsecurity.so.3:_ZN11modsecurity5utils11SharedFiles5closeERKNSt7__cxx1112basic_stringIcSt11char_traitsIcESaIcEEE
libmodsecurity.so.3:_ZN11modsecurity5utils11SharedFiles5writeERKNSt7__cxx1112basic_stringIcSt11char_traitsIcESaIcEEES9_PS7_
libmodsecurity.so.3:_ZN11modsecurity5utils11cpu_secondsEv
libmodsecurity.so.3:_ZN11modsecurity5utils13find_resourceERKNSt7__cxx1112basic_stringIcSt11char_traitsIcESaIcEEES8_PS6_
libmodsecurity.so.3:_ZN11modsecurity5utils13random_numberEdd
libmodsecurity.so.3:_ZN11modsecurity5utils27urldecode_nonstrict_inplaceEPhmPiS2_
libmodsecurity.so.3:_ZN11modsecurity5utils30generate_transaction_unique_idEv
libmodsecurity.so.3:_ZN11modsecurity5utils6isFileERKNSt7__cxx1112basic_stringIcSt11char_traitsIcESaIcEEE
libmodsecurity.so.3:_ZN11modsecurity5utils6string10replaceAllEPNSt7__cxx1112basic_stringIcSt11char_traitsIcESaIcEEERKS7_SA_
libmodsecurity.so.3:_ZN11modsecurity5utils6string11ssplit_pairERKNSt7__cxx1112basic_stringIcSt11char_traitsIcESaIcEEEc
libmodsecurity.so.3:_ZN11modsecurity5utils6string13dash_if_emptyB5cxx11EPKc
libmodsecurity.so.3:_ZN11modsecurity5utils6string13dash_if_emptyEPKNSt7__cxx1112basic_stringIcSt11char_traitsIcESaIcEEE
libmodsecurity.so.3:_ZN11modsecurity5utils6string13string_to_hexERKNSt7__cxx1112basic_stringIcSt11char_traitsIcESaIcEEE
libmodsecurity.so.3:_ZN11modsecurity5utils6string13toHexIfNeededERKNSt7__cxx1112basic_stringIcSt11char_traitsIcESaIcEEEb
libmodsecurity.so.3:_ZN11modsecurity5utils6string15parserSanitizerENSt7__cxx1112basic_stringIcSt11char_traitsIcESaIcEEE
libmodsecurity.so.3:_ZN11modsecurity5utils6string22removeBracketsIfNeededENSt7__cxx1112basic_stringIcSt11char_traitsIcESaIcEEE
libmodsecurity.so.3:_ZN11modsecurity5utils6string25removeWhiteSpacesIfNeededENSt7__cxx1112basic_stringIcSt11char_traitsIcESaIcEEE
libmodsecurity.so.3:_ZN11modsecurity5utils6string3c2xEjPh
libmodsecurity.so.3:_ZN11modsecurity5utils6string3x2cEPKh
libmodsecurity.so.3:_ZN11modsecurity5utils6string5chompEPNSt7__cxx1112basic_stringIcSt11char_traitsIcESaIcEEE
libmodsecurity.so.3:_ZN11modsecurity5utils6string5splitENSt7__cxx1112basic_stringIcSt11char_traitsIcESaIcEEEc
libmodsecurity.so.3:_ZN11modsecurity5utils6string6ssplitENSt7__cxx1112basic_stringIcSt11char_traitsIcESaIcEEEc
libmodsecurity.so.3:_ZN11modsecurity5utils6string7ascTimeB5cxx11EPl
libmodsecurity.so.3:_ZN11modsecurity5utils6string7limitToEiRKNSt7__cxx1112basic_stringIcSt11char_traitsIcESaIcEEE
libmodsecurity.so.3:_ZN11modsecurity5utils6string7tolowerENSt7__cxx1112basic_stringIcSt11char_traitsIcESaIcEEE
libmodsecurity.so.3:_ZN11modsecurity5utils6string7toupperENSt7__cxx1112basic_stringIcSt11char_traitsIcESaIcEEE
libmodsecurity.so.3:_ZN11modsecurity5utils6string9xsingle2cEPKh
libmodsecurity.so.3:_ZN11modsecurity5utils8get_pathERKNSt7__cxx1112basic_stringIcSt11char_traitsIcESaIcEEE
libmodsecurity.so.3:_ZN11modsecurity5utils9createDirERKNSt7__cxx1112basic_stringIcSt11char_traitsIcESaIcEEEiPS6_
libmodsecurity.so.3:_ZN11modsecurity5utils9expandEnvERKNSt7__cxx1112basic_stringIcSt11char_traitsIcESaIcEEEi
libmodsecurity.so.3:_ZN11modsecurity6Parser6Driver10addSecRuleESt10unique_ptrINS_15RuleWithActionsESt14default_deleteIS3_EE
libmodsecurity.so.3:_ZN11modsecurity6Parser6Driver10scan_beginEv
libmodsecurity.so.3:_ZN11modsecurity6Parser6Driver12addSecActionESt10unique_ptrINS_15RuleWithActionsESt14default_deleteIS3_EE
libmodsecurity.so.3:_ZN11modsecurity6Parser6Driver12addSecMarkerERKNSt7__cxx1112basic_stringIcSt11char_traitsIcESaIcEEESt10unique_ptrIS7_St14default_deleteIS7_EEi
libmodsecurity.so.3:_ZN11modsecurity6Parser6Driver16addSecRuleScriptESt10unique_ptrINS_10RuleScriptESt14default_deleteIS3_EE
libmodsecurity.so.3:_ZN11modsecurity6Parser6Driver5errorERKN2yy8locationERKNSt7__cxx1112basic_stringIcSt11char_traitsIcESaIcEEE
libmodsecurity.so.3:_ZN11modsecurity6Parser6Driver5errorERKN2yy8locationERKNSt7__cxx1112basic_stringIcSt11char_traitsIcESaIcEEESD_
libmodsecurity.so.3:_ZN11modsecurity6Parser6Driver5parseERKNSt7__cxx1112basic_stringIcSt11char_traitsIcESaIcEEES9_
libmodsecurity.so.3:_ZN11modsecurity6Parser6Driver8scan_endEv
libmodsecurity.so.3:_ZN11modsecurity6Parser6Driver9parseFileERKNSt7__cxx1112basic_stringIcSt11char_traitsIcESaIcEEE
libmodsecurity.so.3:_ZN11modsecurity6Parser6DriverC1Ev
libmodsecurity.so.3:_ZN11modsecurity6Parser6DriverC2Ev
libmodsecurity.so.3:_ZN11modsecurity6Parser6DriverD0Ev
libmodsecurity.so.3:_ZN11modsecurity6Parser6DriverD1Ev
libmodsecurity.so.3:_ZN11modsecurity6Parser6DriverD2Ev
libmodsecurity.so.3:_ZN11modsecurity6engine3Lua11blob_keeperEP9lua_StatePKvmPv
libmodsecurity.so.3:_ZN11modsecurity6engine3Lua11blob_readerEP9lua_StatePvPm
libmodsecurity.so.3:_ZN11modsecurity6engine3Lua12isCompatibleERKNSt7__cxx1112basic_stringIcSt11char_traitsIcESaIcEEEPS1_PS7_
libmodsecurity.so.3:_ZN11modsecurity6engine3Lua20applyTransformationsEP9lua_StatePNS_11TransactionEiNSt7__cxx1112basic_stringIcSt11char_traitsIcESaIcEEE
libmodsecurity.so.3:_ZN11modsecurity6engine3Lua3logEP9lua_State
libmodsecurity.so.3:_ZN11modsecurity6engine3Lua3runEPNS_11TransactionERKNSt7__cxx1112basic_stringIcSt11char_traitsIcESaIcEEE
libmodsecurity.so.3:_ZN11modsecurity6engine3Lua4loadERKNSt7__cxx1112basic_stringIcSt11char_traitsIcESaIcEEEPS7_
libmodsecurity.so.3:_ZN11modsecurity6engine3Lua6getvarEP9lua_State
libmodsecurity.so.3:_ZN11modsecurity6engine3Lua6setvarEP9lua_State
libmodsecurity.so.3:_ZN11modsecurity6engine3Lua7getvarsEP9lua_State
libmodsecurity.so.3:_ZN11modsecurity7actions10MultiMatch8evaluateEPNS_15RuleWithActionsEPNS_11TransactionE
libmodsecurity.so.3:_ZN11modsecurity7actions10NoAuditLog8evaluateEPNS_15RuleWithActionsEPNS_11TransactionESt10shared_ptrINS_11RuleMessageEE
libmodsecurity.so.3:_ZN11modsecurity7actions10disruptive4Deny8evaluateEPNS_15RuleWithActionsEPNS_11TransactionESt10shared_ptrINS_11RuleMessageEE
libmodsecurity.so.3:_ZN11modsecurity7actions10disruptive4Drop8evaluateEPNS_15RuleWithActionsEPNS_11TransactionESt10shared_ptrINS_11RuleMessageEE
libmodsecurity.so.3:_ZN11modsecurity7actions10disruptive4Pass8evaluateEPNS_15RuleWithActionsEPNS_11TransactionESt10shared_ptrINS_11RuleMessageEE
libmodsecurity.so.3:_ZN11modsecurity7actions10disruptive5Allow4initEPNSt7__cxx1112basic_stringIcSt11char_traitsIcESaIcEEE
libmodsecurity.so.3:_ZN11modsecurity7actions10disruptive5Allow8evaluateEPNS_15RuleWithActionsEPNS_11TransactionE
libmodsecurity.so.3:_ZN11modsecurity7actions10disruptive8Redirect4initEPNSt7__cxx1112basic_stringIcSt11char_traitsIcESaIcEEE
libmodsecurity.so.3:_ZN11modsecurity7actions10disruptive8Redirect8evaluateEPNS_15RuleWithActionsEPNS_11TransactionESt10shared_ptrINS_11RuleMessageEE
libmodsecurity.so.3:_ZN11modsecurity7actions15transformations11RemoveNulls8evaluateERKNSt7__cxx1112basic_stringIcSt11char_traitsIcESaIcEEEPNS_11TransactionE
libmodsecurity.so.3:_ZN11modsecurity7actions15transformations12Base64Decode8evaluateERKNSt7__cxx1112basic_stringIcSt11char_traitsIcESaIcEEEPNS_11TransactionE
libmodsecurity.so.3:_ZN11modsecurity7actions15transformations12Base64Encode8evaluateERKNSt7__cxx1112basic_stringIcSt11char_traitsIcESaIcEEEPNS_11TransactionE
libmodsecurity.so.3:_ZN11modsecurity7actions15transformations12ReplaceNulls8evaluateERKNSt7__cxx1112basic_stringIcSt11char_traitsIcESaIcEEEPNS_11TransactionE
libmodsecurity.so.3:_ZN11modsecurity7actions15transformations12ReplaceNullsC1ERKNSt7__cxx1112basic_stringIcSt11char_traitsIcESaIcEEE
libmodsecurity.so.3:_ZN11modsecurity7actions15transformations12ReplaceNullsC2ERKNSt7__cxx1112basic_stringIcSt11char_traitsIcESaIcEEE
libmodsecurity.so.3:_ZN11modsecurity7actions15transformations12SqlHexDecode7inplaceEPhi
libmodsecurity.so.3:_ZN11modsecurity7actions15transformations12SqlHexDecode8evaluateERKNSt7__cxx1112basic_stringIcSt11char_traitsIcESaIcEEEPNS_11TransactionE
libmodsecurity.so.3:_ZN11modsecurity7actions15transformations12UrlDecodeUni7inplaceEPhmPNS_11TransactionE
libmodsecurity.so.3:_ZN11modsecurity7actions15transformations12UrlDecodeUni8evaluateERKNSt7__cxx1112basic_stringIcSt11char_traitsIcESaIcEEEPNS_11TransactionE
libmodsecurity.so.3:_ZN11modsecurity7actions15transformations13NormalisePath22normalize_path_inplaceEPhiiPi
libmodsecurity.so.3:_ZN11modsecurity7actions15transformations13NormalisePath8evaluateERKNSt7__cxx1112basic_stringIcSt11char_traitsIcESaIcEEEPNS_11TransactionE
libmodsecurity.so.3:_ZN11modsecurity7actions15transformations13NormalisePathC1ERKNSt7__cxx1112basic_stringIcSt11char_traitsIcESaIcEEE
libmodsecurity.so.3:_ZN11modsecurity7actions15transformations13NormalisePathC2ERKNSt7__cxx1112basic_stringIcSt11char_traitsIcESaIcEEE
libmodsecurity.so.3:_ZN11modsecurity7actions15transformations13ParityOdd7bit7inplaceEPhm
libmodsecurity.so.3:_ZN11modsecurity7actions15transformations13ParityOdd7bit8evaluateERKNSt7__cxx1112basic_stringIcSt11char_traitsIcESaIcEEEPNS_11TransactionE
libmodsecurity.so.3:_ZN11modsecurity7actions15transformations13Utf8ToUnicode7inplaceEPhmPi
libmodsecurity.so.3:_ZN11modsecurity7actions15transformations13Utf8ToUnicode8evaluateERKNSt7__cxx1112basic_stringIcSt11char_traitsIcESaIcEEEPNS_11TransactionE
libmodsecurity.so.3:_ZN11modsecurity7actions15transformations14ParityEven7bit7inplaceEPhm
libmodsecurity.so.3:_ZN11modsecurity7actions15transformations14ParityEven7bit8evaluateERKNSt7__cxx1112basic_stringIcSt11char_traitsIcESaIcEEEPNS_11TransactionE
libmodsecurity.so.3:_ZN11modsecurity7actions15transformations14ParityZero7bit7inplaceEPhm
libmodsecurity.so.3:_ZN11modsecurity7actions15transformations14ParityZero7bit8evaluateERKNSt7__cxx1112basic_stringIcSt11char_traitsIcESaIcEEEPNS_11TransactionE
libmodsecurity.so.3:_ZN11modsecurity7actions15transformations14RemoveComments8evaluateERKNSt7__cxx1112basic_stringIcSt11char_traitsIcESaIcEEEPNS_11TransactionE
libmodsecurity.so.3:_ZN11modsecurity7actions15transformations14Transformation11instantiateENSt7__cxx1112basic_stringIcSt11char_traitsIcESaIcEEE
libmodsecurity.so.3:_ZN11modsecurity7actions15transformations14Transformation8evaluateERKNSt7__cxx1112basic_stringIcSt11char_traitsIcESaIcEEEPNS_11TransactionE
libmodsecurity.so.3:_ZN11modsecurity7actions15transformations15Base64DecodeExt8evaluateERKNSt7__cxx1112basic_stringIcSt11char_traitsIcESaIcEEEPNS_11TransactionE
libmodsecurity.so.3:_ZN11modsecurity7actions15transformations15EscapeSeqDecode31ansi_c_sequences_decode_inplaceEPhi
libmodsecurity.so.3:_ZN11modsecurity7actions15transformations15EscapeSeqDecode8evaluateERKNSt7__cxx1112basic_stringIcSt11char_traitsIcESaIcEEEPNS_11TransactionE
libmodsecurity.so.3:_ZN11modsecurity7actions15transformations15EscapeSeqDecodeC1ERKNSt7__cxx1112basic_stringIcSt11char_traitsIcESaIcEEE
libmodsecurity.so.3:_ZN11modsecurity7actions15transformations15EscapeSeqDecodeC2ERKNSt7__cxx1112basic_stringIcSt11char_traitsIcESaIcEEE
libmodsecurity.so.3:_ZN11modsecurity7actions15transformations15ReplaceComments8evaluateERKNSt7__cxx1112basic_stringIcSt11char_traitsIcESaIcEEEPNS_11TransactionE
libmodsecurity.so.3:_ZN11modsecurity7actions15transformations15ReplaceCommentsC1ERKNSt7__cxx1112basic_stringIcSt11char_traitsIcESaIcEEE
libmodsecurity.so.3:_ZN11modsecurity7actions15transformations15ReplaceCommentsC2ERKNSt7__cxx1112basic_stringIcSt11char_traitsIcESaIcEEE
libmodsecurity.so.3:_ZN11modsecurity7actions15transformations16HtmlEntityDecode7inplaceEPhm
libmodsecurity.so.3:_ZN11modsecurity7actions15transformations16HtmlEntityDecode8evaluateERKNSt7__cxx1112basic_stringIcSt11char_traitsIcESaIcEEEPNS_11TransactionE
libmodsecurity.so.3:_ZN11modsecurity7actions15transformations16NormalisePathWin8evaluateERKNSt7__cxx1112basic_stringIcSt11char_traitsIcESaIcEEEPNS_11TransactionE
libmodsecurity.so.3:_ZN11modsecurity7actions15transformations16RemoveWhitespace8evaluateERKNSt7__cxx1112basic_stringIcSt11char_traitsIcESaIcEEEPNS_11TransactionE
libmodsecurity.so.3:_ZN11modsecurity7actions15transformations16RemoveWhitespaceC1ERKNSt7__cxx1112basic_stringIcSt11char_traitsIcESaIcEEE
libmodsecurity.so.3:_ZN11modsecurity7actions15transformations16RemoveWhitespaceC2ERKNSt7__cxx1112basic_stringIcSt11char_traitsIcESaIcEEE
libmodsecurity.so.3:_ZN11modsecurity7actions15transformations18CompressWhitespace8evaluateERKNSt7__cxx1112basic_stringIcSt11char_traitsIcESaIcEEEPNS_11TransactionE
libmodsecurity.so.3:_ZN11modsecurity7actions15transformations18CompressWhitespaceC1ERKNSt7__cxx1112basic_stringIcSt11char_traitsIcESaIcEEE
libmodsecurity.so.3:_ZN11modsecurity7actions15transformations18CompressWhitespaceC2ERKNSt7__cxx1112basic_stringIcSt11char_traitsIcESaIcEEE
libmodsecurity.so.3:_ZN11modsecurity7actions15transformations18RemoveCommentsChar8evaluateERKNSt7__cxx1112basic_stringIcSt11char_traitsIcESaIcEEEPNS_11TransactionE
libmodsecurity.so.3:_ZN11modsecurity7actions15transformations18RemoveCommentsCharC1ERKNSt7__cxx1112basic_stringIcSt11char_traitsIcESaIcEEE
libmodsecurity.so.3:_ZN11modsecurity7actions15transformations18RemoveCommentsCharC2ERKNSt7__cxx1112basic_stringIcSt11char_traitsIcESaIcEEE
libmodsecurity.so.3:_ZN11modsecurity7actions15transformations3Md58evaluateERKNSt7__cxx1112basic_stringIcSt11char_traitsIcESaIcEEEPNS_11TransactionE
libmodsecurity.so.3:_ZN11modsecurity7actions15transformations4None8evaluateERKNSt7__cxx1112basic_stringIcSt11char_traitsIcESaIcEEEPNS_11TransactionE
libmodsecurity.so.3:_ZN11modsecurity7actions15transformations4Sha18evaluateERKNSt7__cxx1112basic_stringIcSt11char_traitsIcESaIcEEEPNS_11TransactionE
libmodsecurity.so.3:_ZN11modsecurity7actions15transformations4Sha1C1ERKNSt7__cxx1112basic_stringIcSt11char_traitsIcESaIcEEE
libmodsecurity.so.3:_ZN11modsecurity7actions15transformations4Sha1C2ERKNSt7__cxx1112basic_stringIcSt11char_traitsIcESaIcEEE
libmodsecurity.so.3:_ZN11modsecurity7actions15transformations4Trim4trimEPNSt7__cxx1112basic_stringIcSt11char_traitsIcESaIcEEE
libmodsecurity.so.3:_ZN11modsecurity7actions15transformations4Trim5ltrimEPNSt7__cxx1112basic_stringIcSt11char_traitsIcESaIcEEE
libmodsecurity.so.3:_ZN11modsecurity7actions15transformations4Trim5rtrimEPNSt7__cxx1112basic_stringIcSt11char_traitsIcESaIcEEE
libmodsecurity.so.3:_ZN11modsecurity7actions15transformations4Trim8evaluateERKNSt7__cxx1112basic_stringIcSt11char_traitsIcESaIcEEEPNS_11TransactionE
libmodsecurity.so.3:_ZN11modsecurity7actions15transformations4TrimC1ERKNSt7__cxx1112basic_stringIcSt11char_traitsIcESaIcEEE
libmodsecurity.so.3:_ZN11modsecurity7actions15transformations4TrimC2ERKNSt7__cxx1112basic_stringIcSt11char_traitsIcESaIcEEE
libmodsecurity.so.3:_ZN11modsecurity7actions15transformations6Length8evaluateERKNSt7__cxx1112basic_stringIcSt11char_traitsIcESaIcEEEPNS_11TransactionE
libmodsecurity.so.3:_ZN11modsecurity7actions15transformations6LengthC1ERKNSt7__cxx1112basic_stringIcSt11char_traitsIcESaIcEEE
libmodsecurity.so.3:_ZN11modsecurity7actions15transformations6LengthC2ERKNSt7__cxx1112basic_stringIcSt11char_traitsIcESaIcEEE
libmodsecurity.so.3:_ZN11modsecurity7actions15transformations7CmdLine8evaluateERKNSt7__cxx1112basic_stringIcSt11char_traitsIcESaIcEEEPNS_11TransactionE
libmodsecurity.so.3:_ZN11modsecurity7actions15transformations8JsDecode7inplaceEPhm
libmodsecurity.so.3:_ZN11modsecurity7actions15transformations8JsDecode8evaluateERKNSt7__cxx1112basic_stringIcSt11char_traitsIcESaIcEEEPNS_11TransactionE
libmodsecurity.so.3:_ZN11modsecurity7actions15transformations8TrimLeft8evaluateERKNSt7__cxx1112basic_stringIcSt11char_traitsIcESaIcEEEPNS_11TransactionE
libmodsecurity.so.3:_ZN11modsecurity7actions15transformations8TrimLeftC1ERKNSt7__cxx1112basic_stringIcSt11char_traitsIcESaIcEEE
libmodsecurity.so.3:_ZN11modsecurity7actions15transformations8TrimLeftC2ERKNSt7__cxx1112basic_stringIcSt11char_traitsIcESaIcEEE
libmodsecurity.so.3:_ZN11modsecurity7actions15transformations9CssDecode18css_decode_inplaceEPhl
libmodsecurity.so.3:_ZN11modsecurity7actions15transformations9CssDecode8evaluateERKNSt7__cxx1112basic_stringIcSt11char_traitsIcESaIcEEEPNS_11TransactionE
libmodsecurity.so.3:_ZN11modsecurity7actions15transformations9HexDecode7inplaceEPhi
libmodsecurity.so.3:_ZN11modsecurity7actions15transformations9HexDecode8evaluateERKNSt7__cxx1112basic_stringIcSt11char_traitsIcESaIcEEEPNS_11TransactionE
libmodsecurity.so.3:_ZN11modsecurity7actions15transformations9HexEncode8evaluateERKNSt7__cxx1112basic_stringIcSt11char_traitsIcESaIcEEEPNS_11TransactionE
libmodsecurity.so.3:_ZN11modsecurity7actions15transformations9HexEncodeC1ERKNSt7__cxx1112basic_stringIcSt11char_traitsIcESaIcEEE
libmodsecurity.so.3:_ZN11modsecurity7actions15transformations9HexEncodeC2ERKNSt7__cxx1112basic_stringIcSt11char_traitsIcESaIcEEE
libmodsecurity.so.3:_ZN11modsecurity7actions15transformations9LowerCase8evaluateERKNSt7__cxx1112basic_stringIcSt11char_traitsIcESaIcEEEPNS_11TransactionE
libmodsecurity.so.3:_ZN11modsecurity7actions15transformations9LowerCaseC1ERKNSt7__cxx1112basic_stringIcSt11char_traitsIcESaIcEEE
libmodsecurity.so.3:_ZN11modsecurity7actions15transformations9LowerCaseC2ERKNSt7__cxx1112basic_stringIcSt11char_traitsIcESaIcEEE
libmodsecurity.so.3:_ZN11modsecurity7actions15transformations9TrimRight8evaluateERKNSt7__cxx1112basic_stringIcSt11char_traitsIcESaIcEEEPNS_11TransactionE
libmodsecurity.so.3:_ZN11modsecurity7actions15transformations9TrimRightC1ERKNSt7__cxx1112basic_stringIcSt11char_traitsIcESaIcEEE
libmodsecurity.so.3:_ZN11modsecurity7actions15transformations9TrimRightC2ERKNSt7__cxx1112basic_stringIcSt11char_traitsIcESaIcEEE
libmodsecurity.so.3:_ZN11modsecurity7actions15transformations9UpperCase8evaluateERKNSt7__cxx1112basic_stringIcSt11char_traitsIcESaIcEEEPNS_11TransactionE
libmodsecurity.so.3:_ZN11modsecurity7actions15transformations9UpperCaseC1ERKNSt7__cxx1112basic_stringIcSt11char_traitsIcESaIcEEE
libmodsecurity.so.3:_ZN11modsecurity7actions15transformations9UpperCaseC2ERKNSt7__cxx1112basic_stringIcSt11char_traitsIcESaIcEEE
libmodsecurity.so.3:_ZN11modsecurity7actions15transformations9UrlDecode8evaluateERKNSt7__cxx1112basic_stringIcSt11char_traitsIcESaIcEEEPNS_11TransactionE
libmodsecurity.so.3:_ZN11modsecurity7actions15transformations9UrlDecodeC1ERKNSt7__cxx1112basic_stringIcSt11char_traitsIcESaIcEEE
libmodsecurity.so.3:_ZN11modsecurity7actions15transformations9UrlDecodeC2ERKNSt7__cxx1112basic_stringIcSt11char_traitsIcESaIcEEE
libmodsecurity.so.3:_ZN11modsecurity7actions15transformations9UrlEncode7url_encB5cxx11EPKcjPi
libmodsecurity.so.3:_ZN11modsecurity7actions15transformations9UrlEncode8evaluateERKNSt7__cxx1112basic_stringIcSt11char_traitsIcESaIcEEEPNS_11TransactionE
libmodsecurity.so.3:_ZN11modsecurity7actions15transformations9UrlEncodeC1ERKNSt7__cxx1112basic_stringIcSt11char_traitsIcESaIcEEE
libmodsecurity.so.3:_ZN11modsecurity7actions15transformations9UrlEncodeC2ERKNSt7__cxx1112basic_stringIcSt11char_traitsIcESaIcEEE
libmodsecurity.so.3:_ZN11modsecurity7actions3Log8evaluateEPNS_15RuleWithActionsEPNS_11TransactionESt10shared_ptrINS_11RuleMessageEE
libmodsecurity.so.3:_ZN11modsecurity7actions3Msg4dataB5cxx11EPNS_11TransactionE
libmodsecurity.so.3:_ZN11modsecurity7actions3Msg8evaluateEPNS_15RuleWithActionsEPNS_11TransactionESt10shared_ptrINS_11RuleMessageEE
libmodsecurity.so.3:_ZN11modsecurity7actions3Rev4initEPNSt7__cxx1112basic_stringIcSt11char_traitsIcESaIcEEE
libmodsecurity.so.3:_ZN11modsecurity7actions3Rev8evaluateEPNS_15RuleWithActionsEPNS_11TransactionE
libmodsecurity.so.3:_ZN11modsecurity7actions3Tag7getNameB5cxx11EPNS_11TransactionE
libmodsecurity.so.3:_ZN11modsecurity7actions3Tag8evaluateEPNS_15RuleWithActionsEPNS_11TransactionESt10shared_ptrINS_11RuleMessageEE
libmodsecurity.so.3:_ZN11modsecurity7actions3Ver8evaluateEPNS_15RuleWithActionsEPNS_11TransactionE
libmodsecurity.so.3:_ZN11modsecurity7actions3ctl10RuleEngine4initEPNSt7__cxx1112basic_stringIcSt11char_traitsIcESaIcEEE
libmodsecurity.so.3:_ZN11modsecurity7actions3ctl10RuleEngine8evaluateEPNS_15RuleWithActionsEPNS_11TransactionE
libmodsecurity.so.3:_ZN11modsecurity7actions3ctl11AuditEngine4initEPNSt7__cxx1112basic_stringIcSt11char_traitsIcESaIcEEE
libmodsecurity.so.3:_ZN11modsecurity7actions3ctl11AuditEngine8evaluateEPNS_15RuleWithActionsEPNS_11TransactionE
libmodsecurity.so.3:_ZN11modsecurity7actions3ctl13AuditLogParts4initEPNSt7__cxx1112basic_stringIcSt11char_traitsIcESaIcEEE
libmodsecurity.so.3:_ZN11modsecurity7actions3ctl13AuditLogParts8evaluateEPNS_15RuleWithActionsEPNS_11TransactionE
libmodsecurity.so.3:_ZN11modsecurity7actions3ctl14RuleRemoveById4initEPNSt7__cxx1112basic_stringIcSt11char_traitsIcESaIcEEE
libmodsecurity.so.3:_ZN11modsecurity7actions3ctl14RuleRemoveById8evaluateEPNS_15RuleWithActionsEPNS_11TransactionE
libmodsecurity.so.3:_ZN11modsecurity7actions3ctl15RuleRemoveByTag4initEPNSt7__cxx1112basic_stringIcSt11char_traitsIcESaIcEEE
libmodsecurity.so.3:_ZN11modsecurity7actions3ctl15RuleRemoveByTag8evaluateEPNS_15RuleWithActionsEPNS_11TransactionE
libmodsecurity.so.3:_ZN11modsecurity7actions3ctl17RequestBodyAccess4initEPNSt7__cxx1112basic_stringIcSt11char_traitsIcESaIcEEE
libmodsecurity.so.3:_ZN11modsecurity7actions3ctl17RequestBodyAccess8evaluateEPNS_15RuleWithActionsEPNS_11TransactionE
libmodsecurity.so.3:_ZN11modsecurity7actions3ctl20RuleRemoveTargetById4initEPNSt7__cxx1112basic_stringIcSt11char_traitsIcESaIcEEE
libmodsecurity.so.3:_ZN11modsecurity7actions3ctl20RuleRemoveTargetById8evaluateEPNS_15RuleWithActionsEPNS_11TransactionE
libmodsecurity.so.3:_ZN11modsecurity7actions3ctl21RuleRemoveTargetByTag4initEPNSt7__cxx1112basic_stringIcSt11char_traitsIcESaIcEEE
libmodsecurity.so.3:_ZN11modsecurity7actions3ctl21RuleRemoveTargetByTag8evaluateEPNS_15RuleWithActionsEPNS_11TransactionE
libmodsecurity.so.3:_ZN11modsecurity7actions3ctl23RequestBodyProcessorXML8evaluateEPNS_15RuleWithActionsEPNS_11TransactionE
libmodsecurity.so.3:_ZN11modsecurity7actions3ctl24RequestBodyProcessorJSON8evaluateEPNS_15RuleWithActionsEPNS_11TransactionE
libmodsecurity.so.3:_ZN11modsecurity7actions3ctl30RequestBodyProcessorURLENCODED8evaluateEPNS_15RuleWithActionsEPNS_11TransactionE
libmodsecurity.so.3:_ZN11modsecurity7actions4Exec4initEPNSt7__cxx1112basic_stringIcSt11char_traitsIcESaIcEEE
libmodsecurity.so.3:_ZN11modsecurity7actions4Exec8evaluateEPNS_15RuleWithActionsEPNS_11TransactionE
libmodsecurity.so.3:_ZN11modsecurity7actions4Skip4initEPNSt7__cxx1112basic_stringIcSt11char_traitsIcESaIcEEE
libmodsecurity.so.3:_ZN11modsecurity7actions4Skip8evaluateEPNS_15RuleWithActionsEPNS_11TransactionE
libmodsecurity.so.3:_ZN11modsecurity7actions4data6Status4initEPNSt7__cxx1112basic_stringIcSt11char_traitsIcESaIcEEE
libmodsecurity.so.3:_ZN11modsecurity7actions4data6Status8evaluateEPNS_15RuleWithActionsEPNS_11TransactionESt10shared_ptrINS_11RuleMessageEE
libmodsecurity.so.3:_ZN11modsecurity7actions5Block8evaluateEPNS_15RuleWithActionsEPNS_11TransactionESt10shared_ptrINS_11RuleMessageEE
libmodsecurity.so.3:_ZN11modsecurity7actions5Chain8evaluateEPNS_15RuleWithActionsEPNS_11TransactionE
libmodsecurity.so.3:_ZN11modsecurity7actions5NoLog8evaluateEPNS_15RuleWithActionsEPNS_11TransactionESt10shared_ptrINS_11RuleMessageEE
libmodsecurity.so.3:_ZN11modsecurity7actions5Phase4initEPNSt7__cxx1112basic_stringIcSt11char_traitsIcESaIcEEE
libmodsecurity.so.3:_ZN11modsecurity7actions5Phase8evaluateEPNS_15RuleWithActionsEPNS_11TransactionE
libmodsecurity.so.3:_ZN11modsecurity7actions5XmlNS4initEPNSt7__cxx1112basic_stringIcSt11char_traitsIcESaIcEEE
libmodsecurity.so.3:_ZN11modsecurity7actions6Action8evaluateEPNS_15RuleWithActionsEPNS_11TransactionE
libmodsecurity.so.3:_ZN11modsecurity7actions6Action8evaluateERKNSt7__cxx1112basic_stringIcSt11char_traitsIcESaIcEEEPNS_11TransactionE
libmodsecurity.so.3:_ZN11modsecurity7actions6RuleId4initEPNSt7__cxx1112basic_stringIcSt11char_traitsIcESaIcEEE
libmodsecurity.so.3:_ZN11modsecurity7actions6RuleId8evaluateEPNS_15RuleWithActionsEPNS_11TransactionE
libmodsecurity.so.3:_ZN11modsecurity7actions6SetENV4initEPNSt7__cxx1112basic_stringIcSt11char_traitsIcESaIcEEE
libmodsecurity.so.3:_ZN11modsecurity7actions6SetENV8evaluateEPNS_15RuleWithActionsEPNS_11TransactionE
libmodsecurity.so.3:_ZN11modsecurity7actions6SetRSC4initEPNSt7__cxx1112basic_stringIcSt11char_traitsIcESaIcEEE
libmodsecurity.so.3:_ZN11modsecurity7actions6SetRSC8evaluateEPNS_15RuleWithActionsEPNS_11TransactionE
libmodsecurity.so.3:_ZN11modsecurity7actions6SetSID4initEPNSt7__cxx1112basic_stringIcSt11char_traitsIcESaIcEEE
libmodsecurity.so.3:_ZN11modsecurity7actions6SetSID8evaluateEPNS_15RuleWithActionsEPNS_11TransactionE
libmodsecurity.so.3:_ZN11modsecurity7actions6SetUID4initEPNSt7__cxx1112basic_stringIcSt11char_traitsIcESaIcEEE
libmodsecurity.so.3:_ZN11modsecurity7actions6SetUID8evaluateEPNS_15RuleWithActionsEPNS_11TransactionE
libmodsecurity.so.3:_ZN11modsecurity7actions6SetVar4initEPNSt7__cxx1112basic_stringIcSt11char_traitsIcESaIcEEE
libmodsecurity.so.3:_ZN11modsecurity7actions6SetVar8evaluateEPNS_15RuleWithActionsEPNS_11TransactionE
libmodsecurity.so.3:_ZN11modsecurity7actions7Capture8evaluateEPNS_15RuleWithActionsEPNS_11TransactionE
libmodsecurity.so.3:_ZN11modsecurity7actions7InitCol4initEPNSt7__cxx1112basic_stringIcSt11char_traitsIcESaIcEEE
libmodsecurity.so.3:_ZN11modsecurity7actions7InitCol8evaluateEPNS_15RuleWithActionsEPNS_11TransactionE
libmodsecurity.so.3:_ZN11modsecurity7actions7LogData4dataB5cxx11EPNS_11TransactionE
libmodsecurity.so.3:_ZN11modsecurity7actions7LogData8evaluateEPNS_15RuleWithActionsEPNS_11TransactionESt10shared_ptrINS_11RuleMessageEE
libmodsecurity.so.3:_ZN11modsecurity7actions8Accuracy4initEPNSt7__cxx1112basic_stringIcSt11char_traitsIcESaIcEEE
libmodsecurity.so.3:_ZN11modsecurity7actions8Accuracy8evaluateEPNS_15RuleWithActionsEPNS_11TransactionE
libmodsecurity.so.3:_ZN11modsecurity7actions8AuditLog8evaluateEPNS_15RuleWithActionsEPNS_11TransactionESt10shared_ptrINS_11RuleMessageEE
libmodsecurity.so.3:_ZN11modsecurity7actions8Maturity4initEPNSt7__cxx1112basic_stringIcSt11char_traitsIcESaIcEEE
libmodsecurity.so.3:_ZN11modsecurity7actions8Maturity8evaluateEPNS_15RuleWithActionsEPNS_11TransactionE
libmodsecurity.so.3:_ZN11modsecurity7actions8Severity4initEPNSt7__cxx1112basic_stringIcSt11char_traitsIcESaIcEEE
libmodsecurity.so.3:_ZN11modsecurity7actions8Severity8evaluateEPNS_15RuleWithActionsEPNS_11TransactionESt10shared_ptrINS_11RuleMessageEE
libmodsecurity.so.3:_ZN11modsecurity7actions9ExpireVar4initEPNSt7__cxx1112basic_stringIcSt11char_traitsIcESaIcEEE
libmodsecurity.so.3:_ZN11modsecurity7actions9ExpireVar8evaluateEPNS_15RuleWithActionsEPNS_11TransactionE
libmodsecurity.so.3:_ZN11modsecurity7actions9SkipAfter8evaluateEPNS_15RuleWithActionsEPNS_11TransactionE
libmodsecurity.so.3:_ZN11modsecurity8RulesSet10loadRemoteEPKcS2_
libmodsecurity.so.3:_ZN11modsecurity8RulesSet11loadFromUriEPKc
libmodsecurity.so.3:_ZN11modsecurity8RulesSet14getParserErrorB5cxx11Ev
libmodsecurity.so.3:_ZN11modsecurity8RulesSet4loadEPKc
libmodsecurity.so.3:_ZN11modsecurity8RulesSet4loadEPKcRKNSt7__cxx1112basic_stringIcSt11char_traitsIcESaIcEEE
libmodsecurity.so.3:_ZN11modsecurity8RulesSet5debugEiRKNSt7__cxx1112basic_stringIcSt11char_traitsIcESaIcEEES8_S8_
libmodsecurity.so.3:_ZN11modsecurity8RulesSet5mergeEPNS_6Parser6DriverE
libmodsecurity.so.3:_ZN11modsecurity8RulesSet5mergeEPS0_
libmodsecurity.so.3:_ZN11modsecurity8RulesSet8evaluateEiPNS_11TransactionE
libmodsecurity.so.3:_ZN11modsecurity8UniqueId11machineNameB5cxx11Ev
libmodsecurity.so.3:_ZN11modsecurity8UniqueId12fillUniqueIdEv
libmodsecurity.so.3:_ZN11modsecurity8UniqueId18ethernetMacAddressB5cxx11Ev
libmodsecurity.so.3:_ZN11modsecurity9audit_log6writer5Https4initEPNSt7__cxx1112basic_stringIcSt11char_traitsIcESaIcEEE
libmodsecurity.so.3:_ZN11modsecurity9audit_log6writer5Https5writeEPNS_11TransactionEiPNSt7__cxx1112basic_stringIcSt11char_traitsIcESaIcEEE
libmodsecurity.so.3:_ZN11modsecurity9audit_log6writer5HttpsD0Ev
libmodsecurity.so.3:_ZN11modsecurity9audit_log6writer5HttpsD1Ev
libmodsecurity.so.3:_ZN11modsecurity9audit_log6writer5HttpsD2Ev
libmodsecurity.so.3:_ZN11modsecurity9audit_log6writer6Serial4initEPNSt7__cxx1112basic_stringIcSt11char_traitsIcESaIcEEE
libmodsecurity.so.3:_ZN11modsecurity9audit_log6writer6Serial5writeEPNS_11TransactionEiPNSt7__cxx1112basic_stringIcSt11char_traitsIcESaIcEEE
libmodsecurity.so.3:_ZN11modsecurity9audit_log6writer6SerialD0Ev
libmodsecurity.so.3:_ZN11modsecurity9audit_log6writer6SerialD1Ev
libmodsecurity.so.3:_ZN11modsecurity9audit_log6writer6SerialD2Ev
libmodsecurity.so.3:_ZN11modsecurity9audit_log6writer6Writer16generateBoundaryEPNSt7__cxx1112basic_stringIcSt11char_traitsIcESaIcEEE
libmodsecurity.so.3:_ZN11modsecurity9audit_log6writer8Parallel4initEPNSt7__cxx1112basic_stringIcSt11char_traitsIcESaIcEEE
libmodsecurity.so.3:_ZN11modsecurity9audit_log6writer8Parallel5writeEPNS_11TransactionEiPNSt7__cxx1112basic_stringIcSt11char_traitsIcESaIcEEE
libmodsecurity.so.3:_ZN11modsecurity9audit_log6writer8ParallelD0Ev
libmodsecurity.so.3:_ZN11modsecurity9audit_log6writer8ParallelD1Ev
libmodsecurity.so.3:_ZN11modsecurity9audit_log6writer8ParallelD2Ev
libmodsecurity.so.3:_ZN11modsecurity9audit_log8AuditLog10isRelevantEi
libmodsecurity.so.3:_ZN11modsecurity9audit_log8AuditLog11removePartsEiRKNSt7__cxx1112basic_stringIcSt11char_traitsIcESaIcEEE
libmodsecurity.so.3:_ZN11modsecurity9audit_log8AuditLog11setFileModeEi
libmodsecurity.so.3:_ZN11modsecurity9audit_log8AuditLog12setFilePath1ERKNSt7__cxx1112basic_stringIcSt11char_traitsIcESaIcEEE
libmodsecurity.so.3:_ZN11modsecurity9audit_log8AuditLog12setFilePath2ERKNSt7__cxx1112basic_stringIcSt11char_traitsIcESaIcEEE
libmodsecurity.so.3:_ZN11modsecurity9audit_log8AuditLog13setStorageDirERKNSt7__cxx1112basic_stringIcSt11char_traitsIcESaIcEEE
libmodsecurity.so.3:_ZN11modsecurity9audit_log8AuditLog14saveIfRelevantEPNS_11TransactionE
libmodsecurity.so.3:_ZN11modsecurity9audit_log8AuditLog14saveIfRelevantEPNS_11TransactionEi
libmodsecurity.so.3:_ZN11modsecurity9audit_log8AuditLog17setRelevantStatusERKNSt7__cxx1112basic_stringIcSt11char_traitsIcESaIcEEE
libmodsecurity.so.3:_ZN11modsecurity9audit_log8AuditLog17setStorageDirModeEi
libmodsecurity.so.3:_ZN11modsecurity9audit_log8AuditLog4initEPNSt7__cxx1112basic_stringIcSt11char_traitsIcESaIcEEE
libmodsecurity.so.3:_ZN11modsecurity9audit_log8AuditLog5closeEv
libmodsecurity.so.3:_ZN11modsecurity9audit_log8AuditLog5mergeEPS1_PNSt7__cxx1112basic_stringIcSt11char_traitsIcESaIcEEE
libmodsecurity.so.3:_ZN11modsecurity9audit_log8AuditLog7setTypeENS1_12AuditLogTypeE
libmodsecurity.so.3:_ZN11modsecurity9audit_log8AuditLog8addPartsEiRKNSt7__cxx1112basic_stringIcSt11char_traitsIcESaIcEEE
libmodsecurity.so.3:_ZN11modsecurity9audit_log8AuditLog8setPartsERKNSt7__cxx1112basic_stringIcSt11char_traitsIcESaIcEEE
libmodsecurity.so.3:_ZN11modsecurity9audit_log8AuditLog9setFormatENS1_14AuditLogFormatE
libmodsecurity.so.3:_ZN11modsecurity9audit_log8AuditLog9setStatusENS1_14AuditLogStatusE
libmodsecurity.so.3:_ZN11modsecurity9audit_log8AuditLogC1Ev
libmodsecurity.so.3:_ZN11modsecurity9audit_log8AuditLogC2Ev
libmodsecurity.so.3:_ZN11modsecurity9audit_log8AuditLogD0Ev
libmodsecurity.so.3:_ZN11modsecurity9audit_log8AuditLogD1Ev
libmodsecurity.so.3:_ZN11modsecurity9audit_log8AuditLogD2Ev
libmodsecurity.so.3:_ZN11modsecurity9debug_log14DebugLogWriter4openERKNSt7__cxx1112basic_stringIcSt11char_traitsIcESaIcEEEPS7_
libmodsecurity.so.3:_ZN11modsecurity9debug_log14DebugLogWriter5closeERKNSt7__cxx1112basic_stringIcSt11char_traitsIcESaIcEEE
libmodsecurity.so.3:_ZN11modsecurity9debug_log14DebugLogWriter9write_logERKNSt7__cxx1112basic_stringIcSt11char_traitsIcESaIcEEES9_
libmodsecurity.so.3:_ZN11modsecurity9debug_log8DebugLog12isLogFileSetEv
libmodsecurity.so.3:_ZN11modsecurity9debug_log8DebugLog13isLogLevelSetEv
libmodsecurity.so.3:_ZN11modsecurity9debug_log8DebugLog15getDebugLogFileB5cxx11Ev
libmodsecurity.so.3:_ZN11modsecurity9debug_log8DebugLog15setDebugLogFileERKNSt7__cxx1112basic_stringIcSt11char_traitsIcESaIcEEEPS7_
libmodsecurity.so.3:_ZN11modsecurity9debug_log8DebugLog16getDebugLogLevelEv
libmodsecurity.so.3:_ZN11modsecurity9debug_log8DebugLog16setDebugLogLevelEi
libmodsecurity.so.3:_ZN11modsecurity9debug_log8DebugLog5writeEiRKNSt7__cxx1112basic_stringIcSt11char_traitsIcESaIcEEE
libmodsecurity.so.3:_ZN11modsecurity9debug_log8DebugLog5writeEiRKNSt7__cxx1112basic_stringIcSt11char_traitsIcESaIcEEES9_S9_
libmodsecurity.so.3:_ZN11modsecurity9debug_log8DebugLogD0Ev
libmodsecurity.so.3:_ZN11modsecurity9debug_log8DebugLogD1Ev
libmodsecurity.so.3:_ZN11modsecurity9debug_log8DebugLogD2Ev
libmodsecurity.so.3:_ZN11modsecurity9operators10BeginsWith8evaluateEPNS_11TransactionEPNS_15RuleWithActionsERKNSt7__cxx1112basic_stringIcSt11char_traitsIcESaIcEEESt10shared_ptrINS_11RuleMessageEE
libmodsecurity.so.3:_ZN11modsecurity9operators10DetectSQLi8evaluateEPNS_11TransactionEPNS_15RuleWithActionsERKNSt7__cxx1112basic_stringIcSt11char_traitsIcESaIcEEESt10shared_ptrINS_11RuleMessageEE
libmodsecurity.so.3:_ZN11modsecurity9operators10PmFromFile4initERKNSt7__cxx1112basic_stringIcSt11char_traitsIcESaIcEEEPS7_
libmodsecurity.so.3:_ZN11modsecurity9operators10PmFromFile9isCommentERKNSt7__cxx1112basic_stringIcSt11char_traitsIcESaIcEEE
libmodsecurity.so.3:_ZN11modsecurity9operators10VerifySVNR14convert_to_intEc
libmodsecurity.so.3:_ZN11modsecurity9operators10VerifySVNR6verifyEPKci
libmodsecurity.so.3:_ZN11modsecurity9operators10VerifySVNR8evaluateEPNS_11TransactionEPNS_15RuleWithActionsERKNSt7__cxx1112basic_stringIcSt11char_traitsIcESaIcEEESt10shared_ptrINS_11RuleMessageEE
libmodsecurity.so.3:_ZN11modsecurity9operators11InspectFile4initERKNSt7__cxx1112basic_stringIcSt11char_traitsIcESaIcEEEPS7_
libmodsecurity.so.3:_ZN11modsecurity9operators11InspectFile8evaluateEPNS_11TransactionERKNSt7__cxx1112basic_stringIcSt11char_traitsIcESaIcEEE
libmodsecurity.so.3:_ZN11modsecurity9operators12ContainsWord14acceptableCharERKNSt7__cxx1112basic_stringIcSt11char_traitsIcESaIcEEEm
libmodsecurity.so.3:_ZN11modsecurity9operators12ContainsWord8evaluateEPNS_11TransactionEPNS_15RuleWithActionsERKNSt7__cxx1112basic_stringIcSt11char_traitsIcESaIcEEESt10shared_ptrINS_11RuleMessageEE
libmodsecurity.so.3:_ZN11modsecurity9operators12ValidateHash8evaluateEPNS_11TransactionERKNSt7__cxx1112basic_stringIcSt11char_traitsIcESaIcEEE
libmodsecurity.so.3:_ZN11modsecurity9operators15IpMatchFromFile4initERKNSt7__cxx1112basic_stringIcSt11char_traitsIcESaIcEEEPS7_
libmodsecurity.so.3:_ZN11modsecurity9operators17ValidateByteRange4initERKNSt7__cxx1112basic_stringIcSt11char_traitsIcESaIcEEEPS7_
libmodsecurity.so.3:_ZN11modsecurity9operators17ValidateByteRange8evaluateEPNS_11TransactionEPNS_15RuleWithActionsERKNSt7__cxx1112basic_stringIcSt11char_traitsIcESaIcEEESt10shared_ptrINS_11RuleMessageEE
libmodsecurity.so.3:_ZN11modsecurity9operators17ValidateByteRange8getRangeERKNSt7__cxx1112basic_stringIcSt11char_traitsIcESaIcEEEPS7_
libmodsecurity.so.3:_ZN11modsecurity9operators18UnconditionalMatch8evaluateEPNS_11TransactionERKNSt7__cxx1112basic_stringIcSt11char_traitsIcESaIcEEE
libmodsecurity.so.3:_ZN11modsecurity9operators19ValidateUrlEncoding21validate_url_encodingEPKcmPm
libmodsecurity.so.3:_ZN11modsecurity9operators19ValidateUrlEncoding8evaluateEPNS_11TransactionEPNS_15RuleWithActionsERKNSt7__cxx1112basic_stringIcSt11char_traitsIcESaIcEEESt10shared_ptrINS_11RuleMessageEE
libmodsecurity.so.3:_ZN11modsecurity9operators20ValidateUtf8Encoding21detect_utf8_characterEPKhj
libmodsecurity.so.3:_ZN11modsecurity9operators20ValidateUtf8Encoding8evaluateEPNS_11TransactionEPNS_15RuleWithActionsERKNSt7__cxx1112basic_stringIcSt11char_traitsIcESaIcEEESt10shared_ptrINS_11RuleMessageEE
libmodsecurity.so.3:_ZN11modsecurity9operators2Eq8evaluateEPNS_11TransactionERKNSt7__cxx1112basic_stringIcSt11char_traitsIcESaIcEEE
libmodsecurity.so.3:_ZN11modsecurity9operators2Ge8evaluateEPNS_11TransactionERKNSt7__cxx1112basic_stringIcSt11char_traitsIcESaIcEEE
libmodsecurity.so.3:_ZN11modsecurity9operators2Gt8evaluateEPNS_11TransactionERKNSt7__cxx1112basic_stringIcSt11char_traitsIcESaIcEEE
libmodsecurity.so.3:_ZN11modsecurity9operators2Le8evaluateEPNS_11TransactionERKNSt7__cxx1112basic_stringIcSt11char_traitsIcESaIcEEE
libmodsecurity.so.3:_ZN11modsecurity9operators2Lt8evaluateEPNS_11TransactionERKNSt7__cxx1112basic_stringIcSt11char_traitsIcESaIcEEE
libmodsecurity.so.3:_ZN11modsecurity9operators2Pm18postOrderTraversalEP17acmp_btree_node_t
libmodsecurity.so.3:_ZN11modsecurity9operators2Pm4initERKNSt7__cxx1112basic_stringIcSt11char_traitsIcESaIcEEEPS7_
libmodsecurity.so.3:_ZN11modsecurity9operators2Pm7cleanupEP11acmp_node_t
libmodsecurity.so.3:_ZN11modsecurity9operators2Pm8evaluateEPNS_11TransactionEPNS_15RuleWithActionsERKNSt7__cxx1112basic_stringIcSt11char_traitsIcESaIcEEESt10shared_ptrINS_11RuleMessageEE
libmodsecurity.so.3:_ZN11modsecurity9operators2PmD0Ev
libmodsecurity.so.3:_ZN11modsecurity9operators2PmD1Ev
libmodsecurity.so.3:_ZN11modsecurity9operators2PmD2Ev
libmodsecurity.so.3:_ZN11modsecurity9operators2Rx4initERKNSt7__cxx1112basic_stringIcSt11char_traitsIcESaIcEEEPS7_
libmodsecurity.so.3:_ZN11modsecurity9operators2Rx8evaluateEPNS_11TransactionEPNS_15RuleWithActionsERKNSt7__cxx1112basic_stringIcSt11char_traitsIcESaIcEEESt10shared_ptrINS_11RuleMessageEE
libmodsecurity.so.3:_ZN11modsecurity9operators3Rbl11furtherInfoEP11sockaddr_inRKNSt7__cxx1112basic_stringIcSt11char_traitsIcESaIcEEEPNS_11TransactionENS1_11RblProviderE
libmodsecurity.so.3:_ZN11modsecurity9operators3Rbl16futherInfo_uriblEjRKNSt7__cxx1112basic_stringIcSt11char_traitsIcESaIcEEEPNS_11TransactionE
libmodsecurity.so.3:_ZN11modsecurity9operators3Rbl17futherInfo_httpblEP11sockaddr_inRKNSt7__cxx1112basic_stringIcSt11char_traitsIcESaIcEEEPNS_11TransactionE
libmodsecurity.so.3:_ZN11modsecurity9operators3Rbl19futherInfo_spamhausEjRKNSt7__cxx1112basic_stringIcSt11char_traitsIcESaIcEEEPNS_11TransactionE
libmodsecurity.so.3:_ZN11modsecurity9operators3Rbl8evaluateEPNS_11TransactionEPNS_15RuleWithActionsERKNSt7__cxx1112basic_stringIcSt11char_traitsIcESaIcEEESt10shared_ptrINS_11RuleMessageEE
libmodsecurity.so.3:_ZN11modsecurity9operators4Rsub8evaluateEPNS_11TransactionERKNSt7__cxx1112basic_stringIcSt11char_traitsIcESaIcEEE
libmodsecurity.so.3:_ZN11modsecurity9operators5StrEq8evaluateEPNS_11TransactionERKNSt7__cxx1112basic_stringIcSt11char_traitsIcESaIcEEE
libmodsecurity.so.3:_ZN11modsecurity9operators6Within8evaluateEPNS_11TransactionEPNS_15RuleWithActionsERKNSt7__cxx1112basic_stringIcSt11char_traitsIcESaIcEEESt10shared_ptrINS_11RuleMessageEE
libmodsecurity.so.3:_ZN11modsecurity9operators7IpMatch4initERKNSt7__cxx1112basic_stringIcSt11char_traitsIcESaIcEEEPS7_
libmodsecurity.so.3:_ZN11modsecurity9operators7IpMatch8evaluateEPNS_11TransactionERKNSt7__cxx1112basic_stringIcSt11char_traitsIcESaIcEEE
libmodsecurity.so.3:_ZN11modsecurity9operators7NoMatch8evaluateEPNS_11TransactionERKNSt7__cxx1112basic_stringIcSt11char_traitsIcESaIcEEE
libmodsecurity.so.3:_ZN11modsecurity9operators8Contains8evaluateEPNS_11TransactionEPNS_15RuleWithActionsERKNSt7__cxx1112basic_stringIcSt11char_traitsIcESaIcEEESt10shared_ptrINS_11RuleMessageEE
libmodsecurity.so.3:_ZN11modsecurity9operators8EndsWith8evaluateEPNS_11TransactionEPNS_15RuleWithActionsERKNSt7__cxx1112basic_stringIcSt11char_traitsIcESaIcEEESt10shared_ptrINS_11RuleMessageEE
libmodsecurity.so.3:_ZN11modsecurity9operators8Operator11instantiateERKNSt7__cxx1112basic_stringIcSt11char_traitsIcESaIcEEES9_
libmodsecurity.so.3:_ZN11modsecurity9operators8Operator16evaluateInternalEPNS_11TransactionEPNS_15RuleWithActionsERKNSt7__cxx1112basic_stringIcSt11char_traitsIcESaIcEEE
libmodsecurity.so.3:_ZN11modsecurity9operators8Operator16evaluateInternalEPNS_11TransactionEPNS_15RuleWithActionsERKNSt7__cxx1112basic_stringIcSt11char_traitsIcESaIcEEESt10shared_ptrINS_11RuleMessageEE
libmodsecurity.so.3:_ZN11modsecurity9operators8Operator16evaluateInternalEPNS_11TransactionERKNSt7__cxx1112basic_stringIcSt11char_traitsIcESaIcEEE
libmodsecurity.so.3:_ZN11modsecurity9operators8Operator19resolveMatchMessageEPNS_11TransactionENSt7__cxx1112basic_stringIcSt11char_traitsIcESaIcEEES9_
libmodsecurity.so.3:_ZN11modsecurity9operators8Operator8evaluateEPNS_11TransactionERKNSt7__cxx1112basic_stringIcSt11char_traitsIcESaIcEEE
libmodsecurity.so.3:_ZN11modsecurity9operators8RxGlobal4initERKNSt7__cxx1112basic_stringIcSt11char_traitsIcESaIcEEEPS7_
libmodsecurity.so.3:_ZN11modsecurity9operators8RxGlobal8evaluateEPNS_11TransactionEPNS_15RuleWithActionsERKNSt7__cxx1112basic_stringIcSt11char_traitsIcESaIcEEESt10shared_ptrINS_11RuleMessageEE
libmodsecurity.so.3:_ZN11modsecurity9operators8StrMatch8evaluateEPNS_11TransactionERKNSt7__cxx1112basic_stringIcSt11char_traitsIcESaIcEEE
libmodsecurity.so.3:_ZN11modsecurity9operators8VerifyCC10luhnVerifyEPKci
libmodsecurity.so.3:_ZN11modsecurity9operators8VerifyCC4initERKNSt7__cxx1112basic_stringIcSt11char_traitsIcESaIcEEEPS7_
libmodsecurity.so.3:_ZN11modsecurity9operators8VerifyCC8evaluateEPNS_11TransactionEPNS_15RuleWithActionsERKNSt7__cxx1112basic_stringIcSt11char_traitsIcESaIcEEESt10shared_ptrINS_11RuleMessageEE
libmodsecurity.so.3:_ZN11modsecurity9operators8VerifyCCD0Ev
libmodsecurity.so.3:_ZN11modsecurity9operators8VerifyCCD1Ev
libmodsecurity.so.3:_ZN11modsecurity9operators8VerifyCCD2Ev
libmodsecurity.so.3:_ZN11modsecurity9operators9DetectXSS8evaluateEPNS_11TransactionEPNS_15RuleWithActionsERKNSt7__cxx1112basic_stringIcSt11char_traitsIcESaIcEEESt10shared_ptrINS_11RuleMessageEE
libmodsecurity.so.3:_ZN11modsecurity9operators9FuzzyHash4initERKNSt7__cxx1112basic_stringIcSt11char_traitsIcESaIcEEEPS7_
libmodsecurity.so.3:_ZN11modsecurity9operators9FuzzyHash8evaluateEPNS_11TransactionERKNSt7__cxx1112basic_stringIcSt11char_traitsIcESaIcEEE
libmodsecurity.so.3:_ZN11modsecurity9operators9FuzzyHashD0Ev
libmodsecurity.so.3:_ZN11modsecurity9operators9FuzzyHashD1Ev
libmodsecurity.so.3:_ZN11modsecurity9operators9FuzzyHashD2Ev
libmodsecurity.so.3:_ZN11modsecurity9operators9GeoLookup5debugEPNS_11TransactionEiRKNSt7__cxx1112basic_stringIcSt11char_traitsIcESaIcEEE
libmodsecurity.so.3:_ZN11modsecurity9operators9GeoLookup8evaluateEPNS_11TransactionERKNSt7__cxx1112basic_stringIcSt11char_traitsIcESaIcEEE
libmodsecurity.so.3:_ZN11modsecurity9operators9GsbLookup8evaluateEPNS_11TransactionERKNSt7__cxx1112basic_stringIcSt11char_traitsIcESaIcEEE
libmodsecurity.so.3:_ZN11modsecurity9operators9VerifyCPF14convert_to_intEc
libmodsecurity.so.3:_ZN11modsecurity9operators9VerifyCPF6verifyEPKci
libmodsecurity.so.3:_ZN11modsecurity9operators9VerifyCPF8evaluateEPNS_11TransactionEPNS_15RuleWithActionsERKNSt7__cxx1112basic_stringIcSt11char_traitsIcESaIcEEESt10shared_ptrINS_11RuleMessageEE
libmodsecurity.so.3:_ZN11modsecurity9operators9VerifySSN14convert_to_intEc
libmodsecurity.so.3:_ZN11modsecurity9operators9VerifySSN6verifyEPKci
libmodsecurity.so.3:_ZN11modsecurity9operators9VerifySSN8evaluateEPNS_11TransactionEPNS_15RuleWithActionsERKNSt7__cxx1112basic_stringIcSt11char_traitsIcESaIcEEESt10shared_ptrINS_11RuleMessageEE
libmodsecurity.so.3:_ZN11modsecurity9variables10RemoteUser8evaluateEPNS_11TransactionEPNS_15RuleWithActionsEPSt6vectorIPKNS_13VariableValueESaIS9_EE
libmodsecurity.so.3:_ZN11modsecurity9variables11ModsecBuild8evaluateEPNS_11TransactionEPNS_15RuleWithActionsEPSt6vectorIPKNS_13VariableValueESaIS9_EE
libmodsecurity.so.3:_ZN11modsecurity9variables15HighestSeverity8evaluateEPNS_11TransactionEPNS_15RuleWithActionsEPSt6vectorIPKNS_13VariableValueESaIS9_EE
libmodsecurity.so.3:_ZN11modsecurity9variables3Env8evaluateEPNS_11TransactionEPNS_15RuleWithActionsEPSt6vectorIPKNS_13VariableValueESaIS9_EE
libmodsecurity.so.3:_ZN11modsecurity9variables3XML8evaluateEPNS_11TransactionEPNS_15RuleWithActionsEPSt6vectorIPKNS_13VariableValueESaIS9_EE
libmodsecurity.so.3:_ZN11modsecurity9variables4Time8evaluateEPNS_11TransactionEPNS_15RuleWithActionsEPSt6vectorIPKNS_13VariableValueESaIS9_EE
libmodsecurity.so.3:_ZN11modsecurity9variables7TimeDay8evaluateEPNS_11TransactionEPNS_15RuleWithActionsEPSt6vectorIPKNS_13VariableValueESaIS9_EE
libmodsecurity.so.3:_ZN11modsecurity9variables7TimeMin8evaluateEPNS_11TransactionEPNS_15RuleWithActionsEPSt6vectorIPKNS_13VariableValueESaIS9_EE
libmodsecurity.so.3:_ZN11modsecurity9variables7TimeMon8evaluateEPNS_11TransactionEPNS_15RuleWithActionsEPSt6vectorIPKNS_13VariableValueESaIS9_EE
libmodsecurity.so.3:_ZN11modsecurity9variables7TimeSec8evaluateEPNS_11TransactionEPNS_15RuleWithActionsEPSt6vectorIPKNS_13VariableValueESaIS9_EE
libmodsecurity.so.3:_ZN11modsecurity9variables8Duration8evaluateEPNS_11TransactionEPNS_15RuleWithActionsEPSt6vectorIPKNS_13VariableValueESaIS9_EE
libmodsecurity.so.3:_ZN11modsecurity9variables8TimeHour8evaluateEPNS_11TransactionEPNS_15RuleWithActionsEPSt6vectorIPKNS_13VariableValueESaIS9_EE
libmodsecurity.so.3:_ZN11modsecurity9variables8TimeWDay8evaluateEPNS_11TransactionEPNS_15RuleWithActionsEPSt6vectorIPKNS_13VariableValueESaIS9_EE
libmodsecurity.so.3:_ZN11modsecurity9variables8TimeYear8evaluateEPNS_11TransactionEPNS_15RuleWithActionsEPSt6vectorIPKNS_13VariableValueESaIS9_EE
libmodsecurity.so.3:_ZN11modsecurity9variables8Variable16addsKeyExclusionEPS1_
libmodsecurity.so.3:_ZN11modsecurity9variables8VariableC1EPS1_
libmodsecurity.so.3:_ZN11modsecurity9variables8VariableC1ERKNSt7__cxx1112basic_stringIcSt11char_traitsIcESaIcEEE
libmodsecurity.so.3:_ZN11modsecurity9variables8VariableC2EPS1_
libmodsecurity.so.3:_ZN11modsecurity9variables8VariableC2ERKNSt7__cxx1112basic_stringIcSt11char_traitsIcESaIcEEE
libmodsecurity.so.3:_ZN11modsecurity9variables9TimeEpoch8evaluateEPNS_11TransactionEPNS_15RuleWithActionsEPSt6vectorIPKNS_13VariableValueESaIS9_EE
libmodsecurity.so.3:_ZN11modsecurity9variablesplERKNSt7__cxx1112basic_stringIcSt11char_traitsIcESaIcEEEPNS0_8VariableE
libmodsecurity.so.3:_ZN11modsecurity9variablesplERKNSt7__cxx1112basic_stringIcSt11char_traitsIcESaIcEEEPNS0_9VariablesE
libmodsecurity.so.3:_ZN2yy14seclang_parser10yytnamerr_B5cxx11EPKc
libmodsecurity.so.3:_ZN2yy14seclang_parser11symbol_nameB5cxx11ENS0_11symbol_kind16symbol_kind_typeE
libmodsecurity.so.3:_ZN2yy14seclang_parser12syntax_errorD0Ev
libmodsecurity.so.3:_ZN2yy14seclang_parser12syntax_errorD1Ev
libmodsecurity.so.3:_ZN2yy14seclang_parser12syntax_errorD2Ev
libmodsecurity.so.3:_ZN2yy14seclang_parser15set_debug_levelEi
libmodsecurity.so.3:_ZN2yy14seclang_parser16set_debug_streamERSo
libmodsecurity.so.3:_ZN2yy14seclang_parser17stack_symbol_typeC1EOS1_
libmodsecurity.so.3:_ZN2yy14seclang_parser17stack_symbol_typeC1EsONS0_11symbol_typeE
libmodsecurity.so.3:_ZN2yy14seclang_parser17stack_symbol_typeC1Ev
libmodsecurity.so.3:_ZN2yy14seclang_parser17stack_symbol_typeC2EOS1_
libmodsecurity.so.3:_ZN2yy14seclang_parser17stack_symbol_typeC2EsONS0_11symbol_typeE
libmodsecurity.so.3:_ZN2yy14seclang_parser17stack_symbol_typeC2Ev
libmodsecurity.so.3:_ZN2yy14seclang_parser17yy_lr_goto_state_Esi
libmodsecurity.so.3:_ZN2yy14seclang_parser24yy_table_value_is_error_Ei
libmodsecurity.so.3:_ZN2yy14seclang_parser25yy_pact_value_is_default_Ei
libmodsecurity.so.3:_ZN2yy14seclang_parser5errorERKNS0_12syntax_errorE
libmodsecurity.so.3:_ZN2yy14seclang_parser5errorERKNS_8locationERKNSt7__cxx1112basic_stringIcSt11char_traitsIcESaIcEEE
libmodsecurity.so.3:_ZN2yy14seclang_parser5parseEv
libmodsecurity.so.3:_ZN2yy14seclang_parser6yypop_Ei
libmodsecurity.so.3:_ZN2yy14seclang_parser7contextC1ERKS0_RKNS0_11symbol_typeE
libmodsecurity.so.3:_ZN2yy14seclang_parser7contextC2ERKS0_RKNS0_11symbol_typeE
libmodsecurity.so.3:_ZN2yy14seclang_parser7yypush_EPKcONS0_17stack_symbol_typeE
libmodsecurity.so.3:_ZN2yy14seclang_parser7yypush_EPKcsONS0_11symbol_typeE
libmodsecurity.so.3:_ZN2yy14seclang_parser8by_state4moveERS1_
libmodsecurity.so.3:_ZN2yy14seclang_parser8by_state5clearEv
libmodsecurity.so.3:_ZN2yy14seclang_parser8by_stateC1ERKS1_
libmodsecurity.so.3:_ZN2yy14seclang_parser8by_stateC1Es
libmodsecurity.so.3:_ZN2yy14seclang_parser8by_stateC1Ev
libmodsecurity.so.3:_ZN2yy14seclang_parser8by_stateC2ERKS1_
libmodsecurity.so.3:_ZN2yy14seclang_parser8by_stateC2Es
libmodsecurity.so.3:_ZN2yy14seclang_parser8by_stateC2Ev
libmodsecurity.so.3:_ZN2yy14seclang_parserC1ERN11modsecurity6Parser6DriverE
libmodsecurity.so.3:_ZN2yy14seclang_parserC2ERN11modsecurity6Parser6DriverE
libmodsecurity.so.3:_ZN2yy14seclang_parserD0Ev
libmodsecurity.so.3:_ZN2yy14seclang_parserD1Ev
libmodsecurity.so.3:_ZN2yy14seclang_parserD2Ev
libmodsecurity.so.3:_ZN2yy14seclang_parserclEv
libmodsecurity.so.3:_ZNK11modsecurity10collection7backend14CollectionData13getSerializedB5cxx11Ev
libmodsecurity.so.3:_ZNK11modsecurity10collection7backend14CollectionData9isExpiredEv
libmodsecurity.so.3:_ZNK11modsecurity11ModSecurity23getConnectorInformationB5cxx11Ev
libmodsecurity.so.3:_ZNK11modsecurity11Transaction15getResponseBodyEv
libmodsecurity.so.3:_ZNK11modsecurity11Transaction18getRuleEngineStateEv
libmodsecurity.so.3:_ZNK11modsecurity11Transaction5debugEiRKNSt7__cxx1112basic_stringIcSt11char_traitsIcESaIcEEE
libmodsecurity.so.3:_ZNK11modsecurity14RulesSetPhases4dumpEv
libmodsecurity.so.3:_ZNK11modsecurity15RuleWithActions8severityEv
libmodsecurity.so.3:_ZNK11modsecurity16RuleWithOperator15getOperatorNameB5cxx11Ev
libmodsecurity.so.3:_ZNK11modsecurity5Utils5Regex12searchGlobalERKNSt7__cxx1112basic_stringIcSt11char_traitsIcESaIcEEERSt6vectorINS0_13SMatchCaptureESaISB_EEm
libmodsecurity.so.3:_ZNK11modsecurity5Utils5Regex14searchOneMatchERKNSt7__cxx1112basic_stringIcSt11char_traitsIcESaIcEEERSt6vectorINS0_13SMatchCaptureESaISB_EEm
libmodsecurity.so.3:_ZNK11modsecurity5Utils5Regex15to_regex_resultEi
libmodsecurity.so.3:_ZNK11modsecurity5Utils5Regex6searchERKNSt7__cxx1112basic_stringIcSt11char_traitsIcESaIcEEE
libmodsecurity.so.3:_ZNK11modsecurity5Utils5Regex6searchERKNSt7__cxx1112basic_stringIcSt11char_traitsIcESaIcEEEPNS0_6SMatchE
libmodsecurity.so.3:_ZNK11modsecurity5Utils5Regex9searchAllERKNSt7__cxx1112basic_stringIcSt11char_traitsIcESaIcEEE
libmodsecurity.so.3:_ZNK11modsecurity5Utils9GeoLookup6lookupERKNSt7__cxx1112basic_stringIcSt11char_traitsIcESaIcEEEPNS_11TransactionESt8functionIFbiS9_EE
libmodsecurity.so.3:_ZNK11modsecurity8RulesSet4dumpEv
libmodsecurity.so.3:_ZNK11modsecurity9audit_log8AuditLog17getFilePermissionEv
libmodsecurity.so.3:_ZNK11modsecurity9audit_log8AuditLog22getDirectoryPermissionEv
libmodsecurity.so.3:_ZNK11modsecurity9audit_log8AuditLog8getPartsEv
libmodsecurity.so.3:_ZNK11modsecurity9operators3Rbl14mapIpToAddressERKNSt7__cxx1112basic_stringIcSt11char_traitsIcESaIcEEEPNS_11TransactionE
libmodsecurity.so.3:_ZNK2yy14seclang_parser11debug_levelEv
libmodsecurity.so.3:_ZNK2yy14seclang_parser12debug_streamEv
libmodsecurity.so.3:_ZNK2yy14seclang_parser15yy_stack_print_Ev
libmodsecurity.so.3:_ZNK2yy14seclang_parser15yysyntax_error_B5cxx11ERKNS0_7contextE
libmodsecurity.so.3:_ZNK2yy14seclang_parser16yy_reduce_print_Ei
libmodsecurity.so.3:_ZNK2yy14seclang_parser26yy_syntax_error_arguments_ERKNS0_7contextEPNS0_11symbol_kind16symbol_kind_typeEi
libmodsecurity.so.3:_ZNK2yy14seclang_parser7context15expected_tokensEPNS0_11symbol_kind16symbol_kind_typeEi
libmodsecurity.so.3:_ZNK2yy14seclang_parser8by_state4kindEv
libmodsecurity.so.3:_ZNSt17_Function_handlerIFbiRKNSt7__cxx1112basic_stringIcSt11char_traitsIcESaIcEEEESt5_BindIFMN11modsecurity9operators9GeoLookupEFbPNSA_11TransactionEiS7_EPSC_SE_St12_PlaceholderILi1EESI_ILi2EEEEE10_M_managerERSt9_Any_dataRKSO_St18_Manager_operation
libmodsecurity.so.3:_ZNSt17_Function_handlerIFbiRKNSt7__cxx1112basic_stringIcSt11char_traitsIcESaIcEEEESt5_BindIFMN11modsecurity9operators9GeoLookupEFbPNSA_11TransactionEiS7_EPSC_SE_St12_PlaceholderILi1EESI_ILi2EEEEE9_M_invokeERKSt9_Any_dataOiS7_
libmodsecurity.so.3:_ZNSt17_Function_handlerIFvPNSt7__cxx1112basic_stringIcSt11char_traitsIcESaIcEEEPSt6vectorIPKN11modsecurity13VariableValueESaISB_EEEZNS8_35AnchoredSetVariableTranslationProxyC4ERKS5_PNS8_19AnchoredSetVariableEEUlS6_SE_E_E10_M_managerERSt9_Any_dataRKSN_St18_Manager_operation
libmodsecurity.so.3:_ZNSt17_Function_handlerIFvPNSt7__cxx1112basic_stringIcSt11char_traitsIcESaIcEEEPSt6vectorIPKN11modsecurity13VariableValueESaISB_EEEZNS8_35AnchoredSetVariableTranslationProxyC4ERKS5_PNS8_19AnchoredSetVariableEEUlS6_SE_E_E9_M_invokeERKSt9_Any_dataOS6_OSE_
libmodsecurity.so.3:_ZZNSt9once_flag18_Prepare_executionC4IZSt9call_onceIZN11modsecurity8UniqueId8uniqueIdEvEUlvE_JEEvRS_OT_DpOT0_EUlvE_EERS7_ENUlvE_4_FUNEv
libmodsecurity.so.3:acmp_add_pattern
libmodsecurity.so.3:acmp_create
libmodsecurity.so.3:acmp_prepare
libmodsecurity.so.3:acmp_process_quick
libmodsecurity.so.3:add_ip_from_param
libmodsecurity.so.3:create_radix_tree
libmodsecurity.so.3:ip_tree_from_param
libmodsecurity.so.3:is_netmask_v4
libmodsecurity.so.3:is_netmask_v6
libmodsecurity.so.3:libinjection_h5_init
libmodsecurity.so.3:libinjection_h5_next
libmodsecurity.so.3:libinjection_is_sqli
libmodsecurity.so.3:libinjection_is_xss
libmodsecurity.so.3:libinjection_sqli
libmodsecurity.so.3:libinjection_sqli_blacklist
libmodsecurity.so.3:libinjection_sqli_callback
libmodsecurity.so.3:libinjection_sqli_check_fingerprint
libmodsecurity.so.3:libinjection_sqli_fingerprint
libmodsecurity.so.3:libinjection_sqli_fold
libmodsecurity.so.3:libinjection_sqli_get_token
libmodsecurity.so.3:libinjection_sqli_init
libmodsecurity.so.3:libinjection_sqli_lookup_word
libmodsecurity.so.3:libinjection_sqli_not_whitelist
libmodsecurity.so.3:libinjection_sqli_reset
libmodsecurity.so.3:libinjection_sqli_tokenize
libmodsecurity.so.3:libinjection_version
libmodsecurity.so.3:libinjection_xss
libmodsecurity.so.3:mbedtls_base64_decode
libmodsecurity.so.3:mbedtls_base64_encode
libmodsecurity.so.3:mbedtls_md5
libmodsecurity.so.3:mbedtls_md5_clone
libmodsecurity.so.3:mbedtls_md5_finish
libmodsecurity.so.3:mbedtls_md5_free
libmodsecurity.so.3:mbedtls_md5_init
libmodsecurity.so.3:mbedtls_md5_process
libmodsecurity.so.3:mbedtls_md5_starts
libmodsecurity.so.3:mbedtls_md5_update
libmodsecurity.so.3:mbedtls_sha1
libmodsecurity.so.3:mbedtls_sha1_clone
libmodsecurity.so.3:mbedtls_sha1_finish
libmodsecurity.so.3:mbedtls_sha1_free
libmodsecurity.so.3:mbedtls_sha1_init
libmodsecurity.so.3:mbedtls_sha1_process
libmodsecurity.so.3:mbedtls_sha1_starts
libmodsecurity.so.3:mbedtls_sha1_update
libmodsecurity.so.3:msc_add_n_request_header
libmodsecurity.so.3:msc_add_n_response_header
libmodsecurity.so.3:msc_add_request_header
libmodsecurity.so.3:msc_add_response_header
libmodsecurity.so.3:msc_append_request_body
libmodsecurity.so.3:msc_append_response_body
libmodsecurity.so.3:msc_cleanup
libmodsecurity.so.3:msc_create_rules_set
libmodsecurity.so.3:msc_get_request_body_length
libmodsecurity.so.3:msc_get_response_body
libmodsecurity.so.3:msc_get_response_body_length
libmodsecurity.so.3:msc_init
libmodsecurity.so.3:msc_intervention
libmodsecurity.so.3:msc_new_transaction
libmodsecurity.so.3:msc_new_transaction_with_id
libmodsecurity.so.3:msc_process_connection
libmodsecurity.so.3:msc_process_logging
libmodsecurity.so.3:msc_process_request_body
libmodsecurity.so.3:msc_process_request_headers
libmodsecurity.so.3:msc_process_response_body
libmodsecurity.so.3:msc_process_response_headers
libmodsecurity.so.3:msc_process_uri
libmodsecurity.so.3:msc_request_body_from_file
libmodsecurity.so.3:msc_rules_add
libmodsecurity.so.3:msc_rules_add_file
libmodsecurity.so.3:msc_rules_add_remote
libmodsecurity.so.3:msc_rules_cleanup
libmodsecurity.so.3:msc_rules_dump
libmodsecurity.so.3:msc_rules_merge
libmodsecurity.so.3:msc_set_connector_info
libmodsecurity.so.3:msc_set_log_cb
libmodsecurity.so.3:msc_transaction_cleanup
libmodsecurity.so.3:msc_update_status_code
libmodsecurity.so.3:msc_who_am_i
libmodsecurity.so.3:parse_pm_content
libmodsecurity.so.3:tree_contains_ip
